
HAL/Build/kernel.silcos.hal:     file format elf32-i386


Disassembly of section .init:

0000438c <_init>:
    438c:	55                   	push   ebp
    438d:	89 e5                	mov    ebp,esp
    438f:	e8 90 0d 00 00       	call   5124 <hello+0xf4>
    4394:	e8 93 56 00 00       	call   9a2c <SetupTSS+0x80>
    4399:	5d                   	pop    ebp
    439a:	c3                   	ret    

Disassembly of section .plt:

000043a0 <_ZN4APIC14wakeupSequenceEjh@plt-0x10>:
    43a0:	ff b3 04 00 00 00    	push   DWORD PTR [ebx+0x4]
    43a6:	ff a3 08 00 00 00    	jmp    DWORD PTR [ebx+0x8]
    43ac:	00 00                	add    BYTE PTR [eax],al
	...

000043b0 <_ZN4APIC14wakeupSequenceEjh@plt>:
    43b0:	ff a3 0c 00 00 00    	jmp    DWORD PTR [ebx+0xc]
    43b6:	68 00 00 00 00       	push   0x0
    43bb:	e9 e0 ff ff ff       	jmp    43a0 <_init+0x14>

000043c0 <_ZN3HAL6IOAPICC1Emm@plt>:
    43c0:	ff a3 10 00 00 00    	jmp    DWORD PTR [ebx+0x10]
    43c6:	68 08 00 00 00       	push   0x8
    43cb:	e9 d0 ff ff ff       	jmp    43a0 <_init+0x14>

000043d0 <EnsureUsability@plt>:
    43d0:	ff a3 14 00 00 00    	jmp    DWORD PTR [ebx+0x14]
    43d6:	68 10 00 00 00       	push   0x10
    43db:	e9 c0 ff ff ff       	jmp    43a0 <_init+0x14>

000043e0 <DbgLine@plt>:
    43e0:	ff a3 18 00 00 00    	jmp    DWORD PTR [ebx+0x18]
    43e6:	68 18 00 00 00       	push   0x18
    43eb:	e9 b0 ff ff ff       	jmp    43a0 <_init+0x14>

000043f0 <_ZN4APIC10triggerIPIEjh@plt>:
    43f0:	ff a3 1c 00 00 00    	jmp    DWORD PTR [ebx+0x1c]
    43f6:	68 20 00 00 00       	push   0x20
    43fb:	e9 a0 ff ff ff       	jmp    43a0 <_init+0x14>

00004400 <ReadPort@plt>:
    4400:	ff a3 20 00 00 00    	jmp    DWORD PTR [ebx+0x20]
    4406:	68 28 00 00 00       	push   0x28
    440b:	e9 90 ff ff ff       	jmp    43a0 <_init+0x14>

00004410 <MapIDT@plt>:
    4410:	ff a3 24 00 00 00    	jmp    DWORD PTR [ebx+0x24]
    4416:	68 30 00 00 00       	push   0x30
    441b:	e9 80 ff ff ff       	jmp    43a0 <_init+0x14>

00004420 <testhpet@plt>:
    4420:	ff a3 28 00 00 00    	jmp    DWORD PTR [ebx+0x28]
    4426:	68 38 00 00 00       	push   0x38
    442b:	e9 70 ff ff ff       	jmp    43a0 <_init+0x14>

00004430 <SpinUnlock@plt>:
    4430:	ff a3 2c 00 00 00    	jmp    DWORD PTR [ebx+0x2c]
    4436:	68 40 00 00 00       	push   0x40
    443b:	e9 60 ff ff ff       	jmp    43a0 <_init+0x14>

00004440 <_Z8ScanRsdpv@plt>:
    4440:	ff a3 30 00 00 00    	jmp    DWORD PTR [ebx+0x30]
    4446:	68 48 00 00 00       	push   0x48
    444b:	e9 50 ff ff ff       	jmp    43a0 <_init+0x14>

00004450 <SetupBSP@plt>:
    4450:	ff a3 34 00 00 00    	jmp    DWORD PTR [ebx+0x34]
    4456:	68 50 00 00 00       	push   0x50
    445b:	e9 40 ff ff ff       	jmp    43a0 <_init+0x14>

00004460 <SpinLock@plt>:
    4460:	ff a3 38 00 00 00    	jmp    DWORD PTR [ebx+0x38]
    4466:	68 58 00 00 00       	push   0x58
    446b:	e9 30 ff ff ff       	jmp    43a0 <_init+0x14>

00004470 <KDelete@plt>:
    4470:	ff a3 3c 00 00 00    	jmp    DWORD PTR [ebx+0x3c]
    4476:	68 60 00 00 00       	push   0x60
    447b:	e9 20 ff ff ff       	jmp    43a0 <_init+0x14>

00004480 <_Z15KiPagesAllocatemmm@plt>:
    4480:	ff a3 40 00 00 00    	jmp    DWORD PTR [ebx+0x40]
    4486:	68 68 00 00 00       	push   0x68
    448b:	e9 10 ff ff ff       	jmp    43a0 <_init+0x14>

00004490 <__cpuid@plt>:
    4490:	ff a3 44 00 00 00    	jmp    DWORD PTR [ebx+0x44]
    4496:	68 70 00 00 00       	push   0x70
    449b:	e9 00 ff ff ff       	jmp    43a0 <_init+0x14>

000044a0 <_Z13EnumerateMADTPFvP14MADTEntryLAPICEPFvP15MADTEntryIOAPICEPFvP12MADTEntryISRE@plt>:
    44a0:	ff a3 48 00 00 00    	jmp    DWORD PTR [ebx+0x48]
    44a6:	68 78 00 00 00       	push   0x78
    44ab:	e9 f0 fe ff ff       	jmp    43a0 <_init+0x14>

000044b0 <Dbg@plt>:
    44b0:	ff a3 4c 00 00 00    	jmp    DWORD PTR [ebx+0x4c]
    44b6:	68 80 00 00 00       	push   0x80
    44bb:	e9 e0 fe ff ff       	jmp    43a0 <_init+0x14>

000044c0 <_Z7kmallocjj@plt>:
    44c0:	ff a3 50 00 00 00    	jmp    DWORD PTR [ebx+0x50]
    44c6:	68 88 00 00 00       	push   0x88
    44cb:	e9 d0 fe ff ff       	jmp    43a0 <_init+0x14>

000044d0 <_ZN3HAL17ProcessorTopology4plugEv@plt>:
    44d0:	ff a3 54 00 00 00    	jmp    DWORD PTR [ebx+0x54]
    44d6:	68 90 00 00 00       	push   0x90
    44db:	e9 c0 fe ff ff       	jmp    43a0 <_init+0x14>

000044e0 <_init@plt>:
    44e0:	ff a3 58 00 00 00    	jmp    DWORD PTR [ebx+0x58]
    44e6:	68 98 00 00 00       	push   0x98
    44eb:	e9 b0 fe ff ff       	jmp    43a0 <_init+0x14>

000044f0 <_ZN4APIC15setupEarlyTimerEv@plt>:
    44f0:	ff a3 5c 00 00 00    	jmp    DWORD PTR [ebx+0x5c]
    44f6:	68 a0 00 00 00       	push   0xa0
    44fb:	e9 a0 fe ff ff       	jmp    43a0 <_init+0x14>

00004500 <AddCElement@plt>:
    4500:	ff a3 60 00 00 00    	jmp    DWORD PTR [ebx+0x60]
    4506:	68 a8 00 00 00       	push   0xa8
    450b:	e9 90 fe ff ff       	jmp    43a0 <_init+0x14>

00004510 <ConstructTrampoline@plt>:
    4510:	ff a3 64 00 00 00    	jmp    DWORD PTR [ebx+0x64]
    4516:	68 b0 00 00 00       	push   0xb0
    451b:	e9 80 fe ff ff       	jmp    43a0 <_init+0x14>

00004520 <_Z13SetupRunqueuev@plt>:
    4520:	ff a3 68 00 00 00    	jmp    DWORD PTR [ebx+0x68]
    4526:	68 b8 00 00 00       	push   0xb8
    452b:	e9 70 fe ff ff       	jmp    43a0 <_init+0x14>

00004530 <_ZN10Executable10IRQHandlerD2Ev@plt>:
    4530:	ff a3 6c 00 00 00    	jmp    DWORD PTR [ebx+0x6c]
    4536:	68 c0 00 00 00       	push   0xc0
    453b:	e9 60 fe ff ff       	jmp    43a0 <_init+0x14>

00004540 <FindMaskWidth@plt>:
    4540:	ff a3 70 00 00 00    	jmp    DWORD PTR [ebx+0x70]
    4546:	68 c8 00 00 00       	push   0xc8
    454b:	e9 50 fe ff ff       	jmp    43a0 <_init+0x14>

00004550 <_ZN10Executable10RoundRobinC1Ev@plt>:
    4550:	ff a3 74 00 00 00    	jmp    DWORD PTR [ebx+0x74]
    4556:	68 d0 00 00 00       	push   0xd0
    455b:	e9 40 fe ff ff       	jmp    43a0 <_init+0x14>

00004560 <_Z5kfreePvb@plt>:
    4560:	ff a3 78 00 00 00    	jmp    DWORD PTR [ebx+0x78]
    4566:	68 d8 00 00 00       	push   0xd8
    456b:	e9 30 fe ff ff       	jmp    43a0 <_init+0x14>

00004570 <DbgInt@plt>:
    4570:	ff a3 7c 00 00 00    	jmp    DWORD PTR [ebx+0x7c]
    4576:	68 e0 00 00 00       	push   0xe0
    457b:	e9 20 fe ff ff       	jmp    43a0 <_init+0x14>

00004580 <_ZN3HAL9CPUDriver11readRequestEPNS_9ProcessorE@plt>:
    4580:	ff a3 80 00 00 00    	jmp    DWORD PTR [ebx+0x80]
    4586:	68 e8 00 00 00       	push   0xe8
    458b:	e9 10 fe ff ff       	jmp    43a0 <_init+0x14>

00004590 <_ZN9ArrayListC1Ev@plt>:
    4590:	ff a3 84 00 00 00    	jmp    DWORD PTR [ebx+0x84]
    4596:	68 f0 00 00 00       	push   0xf0
    459b:	e9 00 fe ff ff       	jmp    43a0 <_init+0x14>

000045a0 <SetupAPs@plt>:
    45a0:	ff a3 88 00 00 00    	jmp    DWORD PTR [ebx+0x88]
    45a6:	68 f8 00 00 00       	push   0xf8
    45ab:	e9 f0 fd ff ff       	jmp    43a0 <_init+0x14>

000045b0 <SetupIDT@plt>:
    45b0:	ff a3 8c 00 00 00    	jmp    DWORD PTR [ebx+0x8c]
    45b6:	68 00 01 00 00       	push   0x100
    45bb:	e9 e0 fd ff ff       	jmp    43a0 <_init+0x14>

000045c0 <KiCreateType@plt>:
    45c0:	ff a3 90 00 00 00    	jmp    DWORD PTR [ebx+0x90]
    45c6:	68 08 01 00 00       	push   0x108
    45cb:	e9 d0 fd ff ff       	jmp    43a0 <_init+0x14>

000045d0 <_Z6memcpyPKvPvm@plt>:
    45d0:	ff a3 94 00 00 00    	jmp    DWORD PTR [ebx+0x94]
    45d6:	68 10 01 00 00       	push   0x110
    45db:	e9 c0 fd ff ff       	jmp    43a0 <_init+0x14>

000045e0 <SetupGDT@plt>:
    45e0:	ff a3 98 00 00 00    	jmp    DWORD PTR [ebx+0x98]
    45e6:	68 18 01 00 00       	push   0x118
    45eb:	e9 b0 fd ff ff       	jmp    43a0 <_init+0x14>

000045f0 <_ZN3HAL8LocalIRQ4initEm@plt>:
    45f0:	ff a3 9c 00 00 00    	jmp    DWORD PTR [ebx+0x9c]
    45f6:	68 20 01 00 00       	push   0x120
    45fb:	e9 a0 fd ff ff       	jmp    43a0 <_init+0x14>

00004600 <KNew@plt>:
    4600:	ff a3 a0 00 00 00    	jmp    DWORD PTR [ebx+0xa0]
    4606:	68 28 01 00 00       	push   0x128
    460b:	e9 90 fd ff ff       	jmp    43a0 <_init+0x14>

00004610 <_ZN3HAL8LocalIRQC1Ev@plt>:
    4610:	ff a3 a4 00 00 00    	jmp    DWORD PTR [ebx+0xa4]
    4616:	68 30 01 00 00       	push   0x130
    461b:	e9 80 fd ff ff       	jmp    43a0 <_init+0x14>

00004620 <_ZN9ArrayListC1Em@plt>:
    4620:	ff a3 a8 00 00 00    	jmp    DWORD PTR [ebx+0xa8]
    4626:	68 38 01 00 00       	push   0x138
    462b:	e9 70 fd ff ff       	jmp    43a0 <_init+0x14>

00004630 <_ZN3HAL17ProcessorTopology8Iterator6ofEachEPNS_9ProcessorEPFvPNS_6DomainEEm@plt>:
    4630:	ff a3 ac 00 00 00    	jmp    DWORD PTR [ebx+0xac]
    4636:	68 40 01 00 00       	push   0x140
    463b:	e9 60 fd ff ff       	jmp    43a0 <_init+0x14>

00004640 <_Z10InitTTablev@plt>:
    4640:	ff a3 b0 00 00 00    	jmp    DWORD PTR [ebx+0xb0]
    4646:	68 48 01 00 00       	push   0x148
    464b:	e9 50 fd ff ff       	jmp    43a0 <_init+0x14>

00004650 <EnsureMapping@plt>:
    4650:	ff a3 b4 00 00 00    	jmp    DWORD PTR [ebx+0xb4]
    4656:	68 50 01 00 00       	push   0x150
    465b:	e9 40 fd ff ff       	jmp    43a0 <_init+0x14>

00004660 <ConstructProcessor@plt>:
    4660:	ff a3 b8 00 00 00    	jmp    DWORD PTR [ebx+0xb8]
    4666:	68 58 01 00 00       	push   0x158
    466b:	e9 30 fd ff ff       	jmp    43a0 <_init+0x14>

00004670 <ExecuteLTR@plt>:
    4670:	ff a3 bc 00 00 00    	jmp    DWORD PTR [ebx+0xbc]
    4676:	68 60 01 00 00       	push   0x160
    467b:	e9 20 fd ff ff       	jmp    43a0 <_init+0x14>

00004680 <_ZN6Module13RecordManager6searchEPc@plt>:
    4680:	ff a3 c0 00 00 00    	jmp    DWORD PTR [ebx+0xc0]
    4686:	68 68 01 00 00       	push   0x168
    468b:	e9 10 fd ff ff       	jmp    43a0 <_init+0x14>

00004690 <_Z6memsetPvhm@plt>:
    4690:	ff a3 c4 00 00 00    	jmp    DWORD PTR [ebx+0xc4]
    4696:	68 70 01 00 00       	push   0x170
    469b:	e9 00 fd ff ff       	jmp    43a0 <_init+0x14>

000046a0 <SetupProcessor@plt>:
    46a0:	ff a3 c8 00 00 00    	jmp    DWORD PTR [ebx+0xc8]
    46a6:	68 78 01 00 00       	push   0x178
    46ab:	e9 f0 fc ff ff       	jmp    43a0 <_init+0x14>

000046b0 <_ZN10Executable3IRQC2Ev@plt>:
    46b0:	ff a3 cc 00 00 00    	jmp    DWORD PTR [ebx+0xcc]
    46b6:	68 80 01 00 00       	push   0x180
    46bb:	e9 e0 fc ff ff       	jmp    43a0 <_init+0x14>

000046c0 <ExecuteLGDT@plt>:
    46c0:	ff a3 d0 00 00 00    	jmp    DWORD PTR [ebx+0xd0]
    46c6:	68 88 01 00 00       	push   0x188
    46cb:	e9 d0 fc ff ff       	jmp    43a0 <_init+0x14>

000046d0 <_Z7memsetfPvmm@plt>:
    46d0:	ff a3 d4 00 00 00    	jmp    DWORD PTR [ebx+0xd4]
    46d6:	68 90 01 00 00       	push   0x190
    46db:	e9 c0 fc ff ff       	jmp    43a0 <_init+0x14>

000046e0 <_ZN3HAL9CPUDriver12writeRequestERNS_10IPIRequestEPNS_9ProcessorE@plt>:
    46e0:	ff a3 d8 00 00 00    	jmp    DWORD PTR [ebx+0xd8]
    46e6:	68 98 01 00 00       	push   0x198
    46eb:	e9 b0 fc ff ff       	jmp    43a0 <_init+0x14>

000046f0 <_ZN4APIC18setupScheduleTicksEv@plt>:
    46f0:	ff a3 dc 00 00 00    	jmp    DWORD PTR [ebx+0xdc]
    46f6:	68 a0 01 00 00       	push   0x1a0
    46fb:	e9 a0 fc ff ff       	jmp    43a0 <_init+0x14>

00004700 <_ZN3HAL7ArchCpu20extractBaseFrequencyEv@plt>:
    4700:	ff a3 e0 00 00 00    	jmp    DWORD PTR [ebx+0xe0]
    4706:	68 a8 01 00 00       	push   0x1a8
    470b:	e9 90 fc ff ff       	jmp    43a0 <_init+0x14>

00004710 <_Z15SetupRSDTHolderv@plt>:
    4710:	ff a3 e4 00 00 00    	jmp    DWORD PTR [ebx+0xe4]
    4716:	68 b0 01 00 00       	push   0x1b0
    471b:	e9 80 fc ff ff       	jmp    43a0 <_init+0x14>

00004720 <WritePort@plt>:
    4720:	ff a3 e8 00 00 00    	jmp    DWORD PTR [ebx+0xe8]
    4726:	68 b8 01 00 00       	push   0x1b8
    472b:	e9 70 fc ff ff       	jmp    43a0 <_init+0x14>

00004730 <DisablePIC@plt>:
    4730:	ff a3 ec 00 00 00    	jmp    DWORD PTR [ebx+0xec]
    4736:	68 c0 01 00 00       	push   0x1c0
    473b:	e9 60 fc ff ff       	jmp    43a0 <_init+0x14>

00004740 <_ZN10Executable16RunqueueBalancer4initEv@plt>:
    4740:	ff a3 f0 00 00 00    	jmp    DWORD PTR [ebx+0xf0]
    4746:	68 c8 01 00 00       	push   0x1c8
    474b:	e9 50 fc ff ff       	jmp    43a0 <_init+0x14>

00004750 <_Z6memcmpPKvS0_m@plt>:
    4750:	ff a3 f4 00 00 00    	jmp    DWORD PTR [ebx+0xf4]
    4756:	68 d0 01 00 00       	push   0x1d0
    475b:	e9 40 fc ff ff       	jmp    43a0 <_init+0x14>

00004760 <APWaitForPermit@plt>:
    4760:	ff a3 f8 00 00 00    	jmp    DWORD PTR [ebx+0xf8]
    4766:	68 d8 01 00 00       	push   0x1d8
    476b:	e9 30 fc ff ff       	jmp    43a0 <_init+0x14>

00004770 <SetupTSS@plt>:
    4770:	ff a3 fc 00 00 00    	jmp    DWORD PTR [ebx+0xfc]
    4776:	68 e0 01 00 00       	push   0x1e0
    477b:	e9 20 fc ff ff       	jmp    43a0 <_init+0x14>

00004780 <ExecuteLIDT@plt>:
    4780:	ff a3 00 01 00 00    	jmp    DWORD PTR [ebx+0x100]
    4786:	68 e8 01 00 00       	push   0x1e8
    478b:	e9 10 fc ff ff       	jmp    43a0 <_init+0x14>

00004790 <_Z9GetFramesmmP8_CONTEXT@plt>:
    4790:	ff a3 04 01 00 00    	jmp    DWORD PTR [ebx+0x104]
    4796:	68 f0 01 00 00       	push   0x1f0
    479b:	e9 00 fc ff ff       	jmp    43a0 <_init+0x14>

000047a0 <_Z21SearchACPITableByNamePKcP11_SDT_HEADER@plt>:
    47a0:	ff a3 08 01 00 00    	jmp    DWORD PTR [ebx+0x108]
    47a6:	68 f8 01 00 00       	push   0x1f8
    47ab:	e9 f0 fb ff ff       	jmp    43a0 <_init+0x14>

Disassembly of section .text:

00005000 <hello-0x30>:
    5000:	53                   	push   ebx
    5001:	83 ec 10             	sub    esp,0x10
    5004:	e8 e7 01 00 00       	call   51f0 <_Z13EnumerateMADTPFvP14MADTEntryLAPICEPFvP15MADTEntryIOAPICEPFvP12MADTEntryISRE+0x9c>
    5009:	81 c3 ef 63 00 00    	add    ebx,0x63ef
    500f:	6a 18                	push   0x18
    5011:	ff b3 b0 ff ff ff    	push   DWORD PTR [ebx-0x50]
    5017:	e8 04 f6 ff ff       	call   4620 <_ZN9ArrayListC1Em@plt>
    501c:	58                   	pop    eax
    501d:	ff b3 84 fd ff ff    	push   DWORD PTR [ebx-0x27c]
    5023:	e8 68 f5 ff ff       	call   4590 <_ZN9ArrayListC1Ev@plt>
    5028:	83 c4 18             	add    esp,0x18
    502b:	5b                   	pop    ebx
    502c:	c3                   	ret    
    502d:	66 90                	xchg   ax,ax
    502f:	90                   	nop

00005030 <hello>:
    5030:	53                   	push   ebx
    5031:	83 ec 14             	sub    esp,0x14
    5034:	e8 b7 01 00 00       	call   51f0 <_Z13EnumerateMADTPFvP14MADTEntryLAPICEPFvP15MADTEntryIOAPICEPFvP12MADTEntryISRE+0x9c>
    5039:	81 c3 bf 63 00 00    	add    ebx,0x63bf
    503f:	8d 83 bc e7 ff ff    	lea    eax,[ebx-0x1844]
    5045:	50                   	push   eax
    5046:	e8 95 f3 ff ff       	call   43e0 <DbgLine@plt>
    504b:	83 c4 18             	add    esp,0x18
    504e:	5b                   	pop    ebx
    504f:	c3                   	ret    
    5050:	b8 10 b5 00 00       	mov    eax,0xb510
    5055:	3d 10 b5 00 00       	cmp    eax,0xb510
    505a:	74 1c                	je     5078 <hello+0x48>
    505c:	b8 00 00 00 00       	mov    eax,0x0
    5061:	85 c0                	test   eax,eax
    5063:	74 13                	je     5078 <hello+0x48>
    5065:	55                   	push   ebp
    5066:	89 e5                	mov    ebp,esp
    5068:	83 ec 14             	sub    esp,0x14
    506b:	68 10 b5 00 00       	push   0xb510
    5070:	ff d0                	call   eax
    5072:	83 c4 10             	add    esp,0x10
    5075:	c9                   	leave  
    5076:	c3                   	ret    
    5077:	90                   	nop
    5078:	c3                   	ret    
    5079:	8d 76 00             	lea    esi,[esi+0x0]
    507c:	b8 10 b5 00 00       	mov    eax,0xb510
    5081:	2d 10 b5 00 00       	sub    eax,0xb510
    5086:	c1 f8 02             	sar    eax,0x2
    5089:	89 c2                	mov    edx,eax
    508b:	c1 ea 1f             	shr    edx,0x1f
    508e:	01 d0                	add    eax,edx
    5090:	d1 f8                	sar    eax,1
    5092:	74 1c                	je     50b0 <hello+0x80>
    5094:	ba 00 00 00 00       	mov    edx,0x0
    5099:	85 d2                	test   edx,edx
    509b:	74 13                	je     50b0 <hello+0x80>
    509d:	55                   	push   ebp
    509e:	89 e5                	mov    ebp,esp
    50a0:	83 ec 10             	sub    esp,0x10
    50a3:	50                   	push   eax
    50a4:	68 10 b5 00 00       	push   0xb510
    50a9:	ff d2                	call   edx
    50ab:	83 c4 10             	add    esp,0x10
    50ae:	c9                   	leave  
    50af:	c3                   	ret    
    50b0:	c3                   	ret    
    50b1:	8d 76 00             	lea    esi,[esi+0x0]
    50b4:	80 3d 20 b5 00 00 00 	cmp    BYTE PTR ds:0xb520,0x0
    50bb:	75 63                	jne    5120 <hello+0xf0>
    50bd:	55                   	push   ebp
    50be:	89 e5                	mov    ebp,esp
    50c0:	56                   	push   esi
    50c1:	53                   	push   ebx
    50c2:	bb 14 b0 00 00       	mov    ebx,0xb014
    50c7:	81 eb 10 b0 00 00    	sub    ebx,0xb010
    50cd:	c1 fb 02             	sar    ebx,0x2
    50d0:	4b                   	dec    ebx
    50d1:	be 10 b0 00 00       	mov    esi,0xb010
    50d6:	a1 24 b5 00 00       	mov    eax,ds:0xb524
    50db:	39 d8                	cmp    eax,ebx
    50dd:	73 13                	jae    50f2 <hello+0xc2>
    50df:	90                   	nop
    50e0:	40                   	inc    eax
    50e1:	a3 24 b5 00 00       	mov    ds:0xb524,eax
    50e6:	ff 14 86             	call   DWORD PTR [esi+eax*4]
    50e9:	a1 24 b5 00 00       	mov    eax,ds:0xb524
    50ee:	39 d8                	cmp    eax,ebx
    50f0:	72 ee                	jb     50e0 <hello+0xb0>
    50f2:	e8 59 ff ff ff       	call   5050 <hello+0x20>
    50f7:	b8 00 00 00 00       	mov    eax,0x0
    50fc:	85 c0                	test   eax,eax
    50fe:	74 10                	je     5110 <hello+0xe0>
    5100:	83 ec 0c             	sub    esp,0xc
    5103:	68 f4 9c 00 00       	push   0x9cf4
    5108:	e8 fc ff ff ff       	call   5109 <hello+0xd9>
    510d:	83 c4 10             	add    esp,0x10
    5110:	c6 05 20 b5 00 00 01 	mov    BYTE PTR ds:0xb520,0x1
    5117:	8d 65 f8             	lea    esp,[ebp-0x8]
    511a:	5b                   	pop    ebx
    511b:	5e                   	pop    esi
    511c:	5d                   	pop    ebp
    511d:	c3                   	ret    
    511e:	66 90                	xchg   ax,ax
    5120:	c3                   	ret    
    5121:	8d 76 00             	lea    esi,[esi+0x0]
    5124:	b8 00 00 00 00       	mov    eax,0x0
    5129:	85 c0                	test   eax,eax
    512b:	74 1f                	je     514c <hello+0x11c>
    512d:	55                   	push   ebp
    512e:	89 e5                	mov    ebp,esp
    5130:	83 ec 10             	sub    esp,0x10
    5133:	68 28 b5 00 00       	push   0xb528
    5138:	68 f4 9c 00 00       	push   0x9cf4
    513d:	e8 fc ff ff ff       	call   513e <hello+0x10e>
    5142:	83 c4 10             	add    esp,0x10
    5145:	c9                   	leave  
    5146:	e9 31 ff ff ff       	jmp    507c <hello+0x4c>
    514b:	90                   	nop
    514c:	e9 2b ff ff ff       	jmp    507c <hello+0x4c>
    5151:	66 90                	xchg   ax,ax
    5153:	90                   	nop

00005154 <_Z13EnumerateMADTPFvP14MADTEntryLAPICEPFvP15MADTEntryIOAPICEPFvP12MADTEntryISRE>:
    5154:	55                   	push   ebp
    5155:	57                   	push   edi
    5156:	56                   	push   esi
    5157:	53                   	push   ebx
    5158:	83 ec 14             	sub    esp,0x14
    515b:	e8 90 00 00 00       	call   51f0 <_Z13EnumerateMADTPFvP14MADTEntryLAPICEPFvP15MADTEntryIOAPICEPFvP12MADTEntryISRE+0x9c>
    5160:	81 c3 98 62 00 00    	add    ebx,0x6298
    5166:	8b 6c 24 30          	mov    ebp,DWORD PTR [esp+0x30]
    516a:	6a 00                	push   0x0
    516c:	8d 83 64 e6 ff ff    	lea    eax,[ebx-0x199c]
    5172:	50                   	push   eax
    5173:	e8 28 f6 ff ff       	call   47a0 <_Z21SearchACPITableByNamePKcP11_SDT_HEADER@plt>
    5178:	83 c4 10             	add    esp,0x10
    517b:	83 78 04 34          	cmp    DWORD PTR [eax+0x4],0x34
    517f:	74 37                	je     51b8 <_Z13EnumerateMADTPFvP14MADTEntryLAPICEPFvP15MADTEntryIOAPICEPFvP12MADTEntryISRE+0x64>
    5181:	89 c7                	mov    edi,eax
    5183:	8d 58 2c             	lea    ebx,[eax+0x2c]
    5186:	31 f6                	xor    esi,esi
    5188:	8a 13                	mov    dl,BYTE PTR [ebx]
    518a:	80 fa 01             	cmp    dl,0x1
    518d:	74 49                	je     51d8 <_Z13EnumerateMADTPFvP14MADTEntryLAPICEPFvP15MADTEntryIOAPICEPFvP12MADTEntryISRE+0x84>
    518f:	72 2f                	jb     51c0 <_Z13EnumerateMADTPFvP14MADTEntryLAPICEPFvP15MADTEntryIOAPICEPFvP12MADTEntryISRE+0x6c>
    5191:	80 fa 02             	cmp    dl,0x2
    5194:	75 22                	jne    51b8 <_Z13EnumerateMADTPFvP14MADTEntryLAPICEPFvP15MADTEntryIOAPICEPFvP12MADTEntryISRE+0x64>
    5196:	85 ed                	test   ebp,ebp
    5198:	74 0c                	je     51a6 <_Z13EnumerateMADTPFvP14MADTEntryLAPICEPFvP15MADTEntryIOAPICEPFvP12MADTEntryISRE+0x52>
    519a:	83 ec 0c             	sub    esp,0xc
    519d:	8d 53 02             	lea    edx,[ebx+0x2]
    51a0:	52                   	push   edx
    51a1:	ff d5                	call   ebp
    51a3:	83 c4 10             	add    esp,0x10
    51a6:	0f b6 53 01          	movzx  edx,BYTE PTR [ebx+0x1]
    51aa:	01 d6                	add    esi,edx
    51ac:	01 d3                	add    ebx,edx
    51ae:	8b 47 04             	mov    eax,DWORD PTR [edi+0x4]
    51b1:	8d 50 cc             	lea    edx,[eax-0x34]
    51b4:	39 f2                	cmp    edx,esi
    51b6:	77 d0                	ja     5188 <_Z13EnumerateMADTPFvP14MADTEntryLAPICEPFvP15MADTEntryIOAPICEPFvP12MADTEntryISRE+0x34>
    51b8:	83 c4 0c             	add    esp,0xc
    51bb:	5b                   	pop    ebx
    51bc:	5e                   	pop    esi
    51bd:	5f                   	pop    edi
    51be:	5d                   	pop    ebp
    51bf:	c3                   	ret    
    51c0:	8b 54 24 20          	mov    edx,DWORD PTR [esp+0x20]
    51c4:	85 d2                	test   edx,edx
    51c6:	74 de                	je     51a6 <_Z13EnumerateMADTPFvP14MADTEntryLAPICEPFvP15MADTEntryIOAPICEPFvP12MADTEntryISRE+0x52>
    51c8:	83 ec 0c             	sub    esp,0xc
    51cb:	8d 53 02             	lea    edx,[ebx+0x2]
    51ce:	52                   	push   edx
    51cf:	ff 54 24 30          	call   DWORD PTR [esp+0x30]
    51d3:	83 c4 10             	add    esp,0x10
    51d6:	eb ce                	jmp    51a6 <_Z13EnumerateMADTPFvP14MADTEntryLAPICEPFvP15MADTEntryIOAPICEPFvP12MADTEntryISRE+0x52>
    51d8:	8b 44 24 24          	mov    eax,DWORD PTR [esp+0x24]
    51dc:	85 c0                	test   eax,eax
    51de:	74 c6                	je     51a6 <_Z13EnumerateMADTPFvP14MADTEntryLAPICEPFvP15MADTEntryIOAPICEPFvP12MADTEntryISRE+0x52>
    51e0:	83 ec 0c             	sub    esp,0xc
    51e3:	8d 53 02             	lea    edx,[ebx+0x2]
    51e6:	52                   	push   edx
    51e7:	ff 54 24 34          	call   DWORD PTR [esp+0x34]
    51eb:	83 c4 10             	add    esp,0x10
    51ee:	eb b6                	jmp    51a6 <_Z13EnumerateMADTPFvP14MADTEntryLAPICEPFvP15MADTEntryIOAPICEPFvP12MADTEntryISRE+0x52>
    51f0:	8b 1c 24             	mov    ebx,DWORD PTR [esp]
    51f3:	c3                   	ret    

000051f4 <do_action>:
    51f4:	56                   	push   esi
    51f5:	53                   	push   ebx
    51f6:	83 ec 10             	sub    esp,0x10
    51f9:	e8 f2 ff ff ff       	call   51f0 <_Z13EnumerateMADTPFvP14MADTEntryLAPICEPFvP15MADTEntryIOAPICEPFvP12MADTEntryISRE+0x9c>
    51fe:	81 c3 fa 61 00 00    	add    ebx,0x61fa
    5204:	8b 74 24 1c          	mov    esi,DWORD PTR [esp+0x1c]
    5208:	56                   	push   esi
    5209:	e8 62 f3 ff ff       	call   4570 <DbgInt@plt>
    520e:	8d 83 15 e8 ff ff    	lea    eax,[ebx-0x17eb]
    5214:	89 04 24             	mov    DWORD PTR [esp],eax
    5217:	e8 94 f2 ff ff       	call   44b0 <Dbg@plt>
    521c:	8b 06                	mov    eax,DWORD PTR [esi]
    521e:	89 74 24 20          	mov    DWORD PTR [esp+0x20],esi
    5222:	8b 00                	mov    eax,DWORD PTR [eax]
    5224:	83 c4 14             	add    esp,0x14
    5227:	5b                   	pop    ebx
    5228:	5e                   	pop    esi
    5229:	ff e0                	jmp    eax
    522b:	90                   	nop

0000522c <testhpet>:
    522c:	53                   	push   ebx
    522d:	83 ec 14             	sub    esp,0x14
    5230:	e8 bb ff ff ff       	call   51f0 <_Z13EnumerateMADTPFvP14MADTEntryLAPICEPFvP15MADTEntryIOAPICEPFvP12MADTEntryISRE+0x9c>
    5235:	81 c3 c3 61 00 00    	add    ebx,0x61c3
    523b:	8d 83 69 e6 ff ff    	lea    eax,[ebx-0x1997]
    5241:	50                   	push   eax
    5242:	e8 99 f1 ff ff       	call   43e0 <DbgLine@plt>
    5247:	c7 04 24 14 00 00 00 	mov    DWORD PTR [esp],0x14
    524e:	e8 1d f3 ff ff       	call   4570 <DbgInt@plt>
    5253:	58                   	pop    eax
    5254:	5a                   	pop    edx
    5255:	6a 01                	push   0x1
    5257:	6a 04                	push   0x4
    5259:	e8 62 f2 ff ff       	call   44c0 <_Z7kmallocjj@plt>
    525e:	8b 93 7c fd ff ff    	mov    edx,DWORD PTR [ebx-0x284]
    5264:	83 c2 08             	add    edx,0x8
    5267:	89 10                	mov    DWORD PTR [eax],edx
    5269:	8b 93 a8 fd ff ff    	mov    edx,DWORD PTR [ebx-0x258]
    526f:	89 02                	mov    DWORD PTR [edx],eax
    5271:	8d 83 78 e6 ff ff    	lea    eax,[ebx-0x1988]
    5277:	89 04 24             	mov    DWORD PTR [esp],eax
    527a:	e8 61 f1 ff ff       	call   43e0 <DbgLine@plt>
    527f:	8b 83 a0 ff ff ff    	mov    eax,DWORD PTR [ebx-0x60]
    5285:	2b 83 50 fe ff ff    	sub    eax,DWORD PTR [ebx-0x1b0]
    528b:	89 04 24             	mov    DWORD PTR [esp],eax
    528e:	e8 dd f2 ff ff       	call   4570 <DbgInt@plt>
    5293:	83 c4 18             	add    esp,0x18
    5296:	5b                   	pop    ebx
    5297:	c3                   	ret    

00005298 <_Z8ScanRsdpv>:
    5298:	57                   	push   edi
    5299:	56                   	push   esi
    529a:	53                   	push   ebx
    529b:	e8 50 ff ff ff       	call   51f0 <_Z13EnumerateMADTPFvP14MADTEntryLAPICEPFvP15MADTEntryIOAPICEPFvP12MADTEntryISRE+0x9c>
    52a0:	81 c3 58 61 00 00    	add    ebx,0x6158
    52a6:	83 ec 0c             	sub    esp,0xc
    52a9:	8d 83 90 e6 ff ff    	lea    eax,[ebx-0x1970]
    52af:	50                   	push   eax
    52b0:	e8 2b f1 ff ff       	call   43e0 <DbgLine@plt>
    52b5:	83 c4 10             	add    esp,0x10
    52b8:	bf 00 00 00 c0       	mov    edi,0xc0000000
    52bd:	8d b3 aa e6 ff ff    	lea    esi,[ebx-0x1956]
    52c3:	eb 0e                	jmp    52d3 <_Z8ScanRsdpv+0x3b>
    52c5:	8d 76 00             	lea    esi,[esi+0x0]
    52c8:	83 c7 10             	add    edi,0x10
    52cb:	81 ff 00 00 10 c0    	cmp    edi,0xc0100000
    52d1:	74 36                	je     5309 <_Z8ScanRsdpv+0x71>
    52d3:	50                   	push   eax
    52d4:	6a 08                	push   0x8
    52d6:	56                   	push   esi
    52d7:	57                   	push   edi
    52d8:	e8 73 f4 ff ff       	call   4750 <_Z6memcmpPKvS0_m@plt>
    52dd:	83 c4 10             	add    esp,0x10
    52e0:	84 c0                	test   al,al
    52e2:	74 e4                	je     52c8 <_Z8ScanRsdpv+0x30>
    52e4:	89 f8                	mov    eax,edi
    52e6:	8d 4f 14             	lea    ecx,[edi+0x14]
    52e9:	31 d2                	xor    edx,edx
    52eb:	90                   	nop
    52ec:	02 10                	add    dl,BYTE PTR [eax]
    52ee:	40                   	inc    eax
    52ef:	39 c8                	cmp    eax,ecx
    52f1:	75 f9                	jne    52ec <_Z8ScanRsdpv+0x54>
    52f3:	84 d2                	test   dl,dl
    52f5:	75 d1                	jne    52c8 <_Z8ScanRsdpv+0x30>
    52f7:	8b b3 00 fd ff ff    	mov    esi,DWORD PTR [ebx-0x300]
    52fd:	89 3e                	mov    DWORD PTR [esi],edi
    52ff:	85 ff                	test   edi,edi
    5301:	74 12                	je     5315 <_Z8ScanRsdpv+0x7d>
    5303:	89 f8                	mov    eax,edi
    5305:	5b                   	pop    ebx
    5306:	5e                   	pop    esi
    5307:	5f                   	pop    edi
    5308:	c3                   	ret    
    5309:	8b b3 00 fd ff ff    	mov    esi,DWORD PTR [ebx-0x300]
    530f:	8b 3e                	mov    edi,DWORD PTR [esi]
    5311:	85 ff                	test   edi,edi
    5313:	75 ee                	jne    5303 <_Z8ScanRsdpv+0x6b>
    5315:	83 ec 0c             	sub    esp,0xc
    5318:	8d 83 b3 e6 ff ff    	lea    eax,[ebx-0x194d]
    531e:	50                   	push   eax
    531f:	e8 bc f0 ff ff       	call   43e0 <DbgLine@plt>
    5324:	8d 83 e0 e6 ff ff    	lea    eax,[ebx-0x1920]
    532a:	89 04 24             	mov    DWORD PTR [esp],eax
    532d:	e8 ae f0 ff ff       	call   43e0 <DbgLine@plt>
    5332:	8d 83 ce e6 ff ff    	lea    eax,[ebx-0x1932]
    5338:	89 04 24             	mov    DWORD PTR [esp],eax
    533b:	e8 a0 f0 ff ff       	call   43e0 <DbgLine@plt>
    5340:	f4                   	hlt    
    5341:	8b 3e                	mov    edi,DWORD PTR [esi]
    5343:	83 c4 10             	add    esp,0x10
    5346:	89 f8                	mov    eax,edi
    5348:	5b                   	pop    ebx
    5349:	5e                   	pop    esi
    534a:	5f                   	pop    edi
    534b:	c3                   	ret    

0000534c <_Z15SetupRSDTHolderv>:
    534c:	55                   	push   ebp
    534d:	57                   	push   edi
    534e:	56                   	push   esi
    534f:	53                   	push   ebx
    5350:	83 ec 1c             	sub    esp,0x1c
    5353:	e8 98 fe ff ff       	call   51f0 <_Z13EnumerateMADTPFvP14MADTEntryLAPICEPFvP15MADTEntryIOAPICEPFvP12MADTEntryISRE+0x9c>
    5358:	81 c3 a0 60 00 00    	add    ebx,0x60a0
    535e:	8b b3 00 fd ff ff    	mov    esi,DWORD PTR [ebx-0x300]
    5364:	8b 06                	mov    eax,DWORD PTR [esi]
    5366:	8a 50 0f             	mov    dl,BYTE PTR [eax+0xf]
    5369:	88 54 24 0f          	mov    BYTE PTR [esp+0xf],dl
    536d:	84 d2                	test   dl,dl
    536f:	74 0b                	je     537c <_Z15SetupRSDTHolderv+0x30>
    5371:	83 c4 1c             	add    esp,0x1c
    5374:	5b                   	pop    ebx
    5375:	5e                   	pop    esi
    5376:	5f                   	pop    edi
    5377:	5d                   	pop    ebp
    5378:	c3                   	ret    
    5379:	8d 76 00             	lea    esi,[esi+0x0]
    537c:	52                   	push   edx
    537d:	6a 00                	push   0x0
    537f:	6a 03                	push   0x3
    5381:	68 00 00 00 80       	push   0x80000000
    5386:	6a 00                	push   0x0
    5388:	8b 40 10             	mov    eax,DWORD PTR [eax+0x10]
    538b:	25 00 f0 ff ff       	and    eax,0xfffff000
    5390:	31 d2                	xor    edx,edx
    5392:	52                   	push   edx
    5393:	50                   	push   eax
    5394:	8b ab 18 fd ff ff    	mov    ebp,DWORD PTR [ebx-0x2e8]
    539a:	8b 45 00             	mov    eax,DWORD PTR [ebp+0x0]
    539d:	c1 e0 0c             	shl    eax,0xc
    53a0:	50                   	push   eax
    53a1:	e8 aa f2 ff ff       	call   4650 <EnsureMapping@plt>
    53a6:	8b 55 00             	mov    edx,DWORD PTR [ebp+0x0]
    53a9:	89 d0                	mov    eax,edx
    53ab:	c1 e0 0c             	shl    eax,0xc
    53ae:	8b bb b4 fe ff ff    	mov    edi,DWORD PTR [ebx-0x14c]
    53b4:	89 7c 24 28          	mov    DWORD PTR [esp+0x28],edi
    53b8:	8b 0e                	mov    ecx,DWORD PTR [esi]
    53ba:	8b 49 10             	mov    ecx,DWORD PTR [ecx+0x10]
    53bd:	81 e1 ff 0f 00 00    	and    ecx,0xfff
    53c3:	01 c1                	add    ecx,eax
    53c5:	89 0f                	mov    DWORD PTR [edi],ecx
    53c7:	42                   	inc    edx
    53c8:	89 55 00             	mov    DWORD PTR [ebp+0x0],edx
    53cb:	05 00 10 00 00       	add    eax,0x1000
    53d0:	89 83 68 01 00 00    	mov    DWORD PTR [ebx+0x168],eax
    53d6:	83 c4 14             	add    esp,0x14
    53d9:	6a 00                	push   0x0
    53db:	6a 03                	push   0x3
    53dd:	68 00 00 00 80       	push   0x80000000
    53e2:	6a 00                	push   0x0
    53e4:	50                   	push   eax
    53e5:	e8 e6 ef ff ff       	call   43d0 <EnsureUsability@plt>
    53ea:	8b 45 00             	mov    eax,DWORD PTR [ebp+0x0]
    53ed:	8d 48 01             	lea    ecx,[eax+0x1]
    53f0:	89 4d 00             	mov    DWORD PTR [ebp+0x0],ecx
    53f3:	8b b3 68 01 00 00    	mov    esi,DWORD PTR [ebx+0x168]
    53f9:	8b 07                	mov    eax,DWORD PTR [edi]
    53fb:	89 06                	mov    DWORD PTR [esi],eax
    53fd:	89 ca                	mov    edx,ecx
    53ff:	c1 e2 0c             	shl    edx,0xc
    5402:	89 56 04             	mov    DWORD PTR [esi+0x4],edx
    5405:	8b 78 04             	mov    edi,DWORD PTR [eax+0x4]
    5408:	8d 57 dc             	lea    edx,[edi-0x24]
    540b:	c1 ea 02             	shr    edx,0x2
    540e:	89 56 08             	mov    DWORD PTR [esi+0x8],edx
    5411:	83 c4 20             	add    esp,0x20
    5414:	85 d2                	test   edx,edx
    5416:	74 55                	je     546d <_Z15SetupRSDTHolderv+0x121>
    5418:	31 ff                	xor    edi,edi
    541a:	66 90                	xchg   ax,ax
    541c:	8b 74 b8 24          	mov    esi,DWORD PTR [eax+edi*4+0x24]
    5420:	50                   	push   eax
    5421:	6a 00                	push   0x0
    5423:	6a 03                	push   0x3
    5425:	68 00 00 00 80       	push   0x80000000
    542a:	6a 00                	push   0x0
    542c:	89 f0                	mov    eax,esi
    542e:	25 00 f0 ff ff       	and    eax,0xfffff000
    5433:	31 d2                	xor    edx,edx
    5435:	52                   	push   edx
    5436:	50                   	push   eax
    5437:	c1 e1 0c             	shl    ecx,0xc
    543a:	51                   	push   ecx
    543b:	e8 10 f2 ff ff       	call   4650 <EnsureMapping@plt>
    5440:	8b 4d 00             	mov    ecx,DWORD PTR [ebp+0x0]
    5443:	8b 93 68 01 00 00    	mov    edx,DWORD PTR [ebx+0x168]
    5449:	89 c8                	mov    eax,ecx
    544b:	c1 e0 0c             	shl    eax,0xc
    544e:	81 e6 ff 0f 00 00    	and    esi,0xfff
    5454:	01 c6                	add    esi,eax
    5456:	89 74 ba 0c          	mov    DWORD PTR [edx+edi*4+0xc],esi
    545a:	41                   	inc    ecx
    545b:	89 4d 00             	mov    DWORD PTR [ebp+0x0],ecx
    545e:	47                   	inc    edi
    545f:	83 c4 20             	add    esp,0x20
    5462:	8b 44 24 08          	mov    eax,DWORD PTR [esp+0x8]
    5466:	39 7a 08             	cmp    DWORD PTR [edx+0x8],edi
    5469:	8b 00                	mov    eax,DWORD PTR [eax]
    546b:	77 af                	ja     541c <_Z15SetupRSDTHolderv+0xd0>
    546d:	8b 50 04             	mov    edx,DWORD PTR [eax+0x4]
    5470:	85 d2                	test   edx,edx
    5472:	0f 84 f9 fe ff ff    	je     5371 <_Z15SetupRSDTHolderv+0x25>
    5478:	01 c2                	add    edx,eax
    547a:	8a 4c 24 0f          	mov    cl,BYTE PTR [esp+0xf]
    547e:	66 90                	xchg   ax,ax
    5480:	02 08                	add    cl,BYTE PTR [eax]
    5482:	40                   	inc    eax
    5483:	39 c2                	cmp    edx,eax
    5485:	75 f9                	jne    5480 <_Z15SetupRSDTHolderv+0x134>
    5487:	84 c9                	test   cl,cl
    5489:	0f 84 e2 fe ff ff    	je     5371 <_Z15SetupRSDTHolderv+0x25>
    548f:	83 ec 0c             	sub    esp,0xc
    5492:	8b 83 30 fd ff ff    	mov    eax,DWORD PTR [ebx-0x2d0]
    5498:	ff 30                	push   DWORD PTR [eax]
    549a:	e8 41 ef ff ff       	call   43e0 <DbgLine@plt>
    549f:	fa                   	cli    
    54a0:	f4                   	hlt    
    54a1:	83 c4 10             	add    esp,0x10
    54a4:	83 c4 1c             	add    esp,0x1c
    54a7:	5b                   	pop    ebx
    54a8:	5e                   	pop    esi
    54a9:	5f                   	pop    edi
    54aa:	5d                   	pop    ebp
    54ab:	c3                   	ret    

000054ac <_Z21SearchACPITableByNamePKcP11_SDT_HEADER>:
    54ac:	55                   	push   ebp
    54ad:	57                   	push   edi
    54ae:	56                   	push   esi
    54af:	53                   	push   ebx
    54b0:	83 ec 0c             	sub    esp,0xc
    54b3:	e8 38 fd ff ff       	call   51f0 <_Z13EnumerateMADTPFvP14MADTEntryLAPICEPFvP15MADTEntryIOAPICEPFvP12MADTEntryISRE+0x9c>
    54b8:	81 c3 40 5f 00 00    	add    ebx,0x5f40
    54be:	8b 7c 24 20          	mov    edi,DWORD PTR [esp+0x20]
    54c2:	8b 74 24 24          	mov    esi,DWORD PTR [esp+0x24]
    54c6:	8b 83 68 01 00 00    	mov    eax,DWORD PTR [ebx+0x168]
    54cc:	85 f6                	test   esi,esi
    54ce:	74 48                	je     5518 <_Z21SearchACPITableByNamePKcP11_SDT_HEADER+0x6c>
    54d0:	83 e6 0c             	and    esi,0xc
    54d3:	2b 70 04             	sub    esi,DWORD PTR [eax+0x4]
    54d6:	c1 ee 0c             	shr    esi,0xc
    54d9:	3b 70 08             	cmp    esi,DWORD PTR [eax+0x8]
    54dc:	72 0e                	jb     54ec <_Z21SearchACPITableByNamePKcP11_SDT_HEADER+0x40>
    54de:	eb 2c                	jmp    550c <_Z21SearchACPITableByNamePKcP11_SDT_HEADER+0x60>
    54e0:	46                   	inc    esi
    54e1:	8b 83 68 01 00 00    	mov    eax,DWORD PTR [ebx+0x168]
    54e7:	39 70 08             	cmp    DWORD PTR [eax+0x8],esi
    54ea:	76 20                	jbe    550c <_Z21SearchACPITableByNamePKcP11_SDT_HEADER+0x60>
    54ec:	8b 6c b0 0c          	mov    ebp,DWORD PTR [eax+esi*4+0xc]
    54f0:	50                   	push   eax
    54f1:	6a 04                	push   0x4
    54f3:	57                   	push   edi
    54f4:	55                   	push   ebp
    54f5:	e8 56 f2 ff ff       	call   4750 <_Z6memcmpPKvS0_m@plt>
    54fa:	83 c4 10             	add    esp,0x10
    54fd:	84 c0                	test   al,al
    54ff:	74 df                	je     54e0 <_Z21SearchACPITableByNamePKcP11_SDT_HEADER+0x34>
    5501:	89 e8                	mov    eax,ebp
    5503:	83 c4 0c             	add    esp,0xc
    5506:	5b                   	pop    ebx
    5507:	5e                   	pop    esi
    5508:	5f                   	pop    edi
    5509:	5d                   	pop    ebp
    550a:	c3                   	ret    
    550b:	90                   	nop
    550c:	31 ed                	xor    ebp,ebp
    550e:	89 e8                	mov    eax,ebp
    5510:	83 c4 0c             	add    esp,0xc
    5513:	5b                   	pop    ebx
    5514:	5e                   	pop    esi
    5515:	5f                   	pop    edi
    5516:	5d                   	pop    ebp
    5517:	c3                   	ret    
    5518:	31 f6                	xor    esi,esi
    551a:	eb bd                	jmp    54d9 <_Z21SearchACPITableByNamePKcP11_SDT_HEADER+0x2d>
    551c:	66 90                	xchg   ax,ax
    551e:	66 90                	xchg   ax,ax

00005520 <APBoot>:
    5520:	00 00                	add    BYTE PTR [eax],al
	...

00005524 <halLoadPAddr>:
    5524:	00 00                	add    BYTE PTR [eax],al
    5526:	00 00                	add    BYTE PTR [eax],al
    5528:	fa                   	cli    
    5529:	8c c8                	mov    eax,cs
    552b:	8e d8                	mov    ds,eax
    552d:	c7 06 60 00 bb 00    	mov    DWORD PTR [esi],0xbb0060
    5533:	0f 01 16             	lgdtd  [esi]
    5536:	62 00                	bound  eax,QWORD PTR [eax]
    5538:	0f 20 c0             	mov    eax,cr0
    553b:	66 83 c8 01          	or     ax,0x1
    553f:	0f 22 c0             	mov    cr0,eax
    5542:	66 bb 30 00          	mov    bx,0x30
    5546:	09 00                	or     DWORD PTR [eax],eax
    5548:	66 ea 00 00 00 40    	jmp    0x4000:0x0
    554e:	08 00                	or     BYTE PTR [eax],al
    5550:	ba 88 55 00 00       	mov    edx,0x5588
    5555:	b9 00 00 00 00       	mov    ecx,0x0
    555a:	81 e9 00 00 00 c0    	sub    ecx,0xc0000000
    5560:	ff e1                	jmp    ecx
    5562:	90                   	nop
    5563:	90                   	nop
    5564:	90                   	nop
    5565:	90                   	nop
    5566:	90                   	nop
    5567:	90                   	nop

00005568 <apSetupInfo>:
	...
    5570:	ff                   	(bad)  
    5571:	ff 00                	inc    DWORD PTR [eax]
    5573:	00 00                	add    BYTE PTR [eax],al
    5575:	9a cf 00 ff ff 00 00 	call   0x0:0xffff00cf
    557c:	00 92 cf 00 02 00    	add    BYTE PTR [edx+0x200cf],dl

00005582 <defaultBootGDTPointer>:
    5582:	17                   	pop    ss
    5583:	00 48 00             	add    BYTE PTR [eax+0x0],cl
    5586:	09 00                	or     DWORD PTR [eax],eax

00005588 <APBootSequenceEnd>:
    5588:	a1 00 00 00 00       	mov    eax,ds:0x0
    558d:	8b 40 20             	mov    eax,DWORD PTR [eax+0x20]
    5590:	c1 e8 09             	shr    eax,0x9
    5593:	bb 00 00 40 c1       	mov    ebx,0xc1400000
    5598:	01 c3                	add    ebx,eax
    559a:	8b 63 1c             	mov    esp,DWORD PTR [ebx+0x1c]
    559d:	e8 fc ff ff ff       	call   559e <APBootSequenceEnd+0x16>

000055a2 <APWaitForPermit>:
    55a2:	52                   	push   edx
    55a3:	f3 90                	pause  
    55a5:	f3 90                	pause  
    55a7:	f3 90                	pause  
    55a9:	8b 15 00 00 00 00    	mov    edx,DWORD PTR ds:0x0
    55af:	83 fa 00             	cmp    edx,0x0
    55b2:	75 02                	jne    55b6 <APWaitForPermit+0x14>
    55b4:	74 ed                	je     55a3 <APWaitForPermit+0x1>
    55b6:	50                   	push   eax
    55b7:	51                   	push   ecx
    55b8:	8b 4c 24 10          	mov    ecx,DWORD PTR [esp+0x10]
    55bc:	0f 31                	rdtsc  
    55be:	89 01                	mov    DWORD PTR [ecx],eax
    55c0:	89 51 04             	mov    DWORD PTR [ecx+0x4],edx
    55c3:	59                   	pop    ecx
    55c4:	58                   	pop    eax
    55c5:	5a                   	pop    edx
    55c6:	c3                   	ret    

000055c7 <BSPGrantPermit>:
    55c7:	c7 05 00 00 00 00 01 	mov    DWORD PTR ds:0x0,0x1
    55ce:	00 00 00 
    55d1:	0f ae f8             	sfence 
    55d4:	c3                   	ret    

000055d5 <SpinLock>:
    55d5:	50                   	push   eax
    55d6:	51                   	push   ecx
    55d7:	8b 44 24 0c          	mov    eax,DWORD PTR [esp+0xc]
    55db:	f3 90                	pause  
    55dd:	b9 01 00 00 00       	mov    ecx,0x1
    55e2:	87 08                	xchg   DWORD PTR [eax],ecx
    55e4:	83 f9 00             	cmp    ecx,0x0
    55e7:	74 f2                	je     55db <SpinLock+0x6>
    55e9:	0f ae f0             	mfence 
    55ec:	59                   	pop    ecx
    55ed:	58                   	pop    eax
    55ee:	c3                   	ret    

000055ef <SpinUnlock>:
    55ef:	50                   	push   eax
    55f0:	8b 44 24 08          	mov    eax,DWORD PTR [esp+0x8]
    55f4:	c7 00 00 00 00 00    	mov    DWORD PTR [eax],0x0
    55fa:	0f ae f0             	mfence 
    55fd:	58                   	pop    eax
    55fe:	c3                   	ret    
    55ff:	90                   	nop

00005600 <_ZN4APIC15setupEarlyTimerEv>:
    5600:	e8 d6 01 00 00       	call   57db <_ZN4APIC14wakeupSequenceEjh+0x73>
    5605:	05 f3 5d 00 00       	add    eax,0x5df3
    560a:	8b 90 6c fd ff ff    	mov    edx,DWORD PTR [eax-0x294]
    5610:	80 3a 00             	cmp    BYTE PTR [edx],0x0
    5613:	74 03                	je     5618 <_ZN4APIC15setupEarlyTimerEv+0x18>
    5615:	c3                   	ret    
    5616:	66 90                	xchg   ax,ax
    5618:	53                   	push   ebx
    5619:	83 ec 0c             	sub    esp,0xc
    561c:	8b 98 e4 fd ff ff    	mov    ebx,DWORD PTR [eax-0x21c]
    5622:	8b 13                	mov    edx,DWORD PTR [ebx]
    5624:	c7 82 80 02 00 00 00 	mov    DWORD PTR [edx+0x280],0x0
    562b:	00 00 00 
    562e:	ff b0 f0 ff ff ff    	push   DWORD PTR [eax-0x10]
    5634:	ff b0 10 fd ff ff    	push   DWORD PTR [eax-0x2f0]
    563a:	68 fc 00 00 00       	push   0xfc
    563f:	e8 3c 04 00 00       	call   5a80 <Spurious+0x4>
    5644:	8b 03                	mov    eax,DWORD PTR [ebx]
    5646:	c7 80 f0 00 00 00 fe 	mov    DWORD PTR [eax+0xf0],0x1fe
    564d:	01 00 00 
    5650:	8b 03                	mov    eax,DWORD PTR [ebx]
    5652:	c7 80 e0 03 00 00 80 	mov    DWORD PTR [eax+0x3e0],0x80
    5659:	00 00 00 
    565c:	8b 03                	mov    eax,DWORD PTR [ebx]
    565e:	c7 80 20 03 00 00 20 	mov    DWORD PTR [eax+0x320],0x20020
    5665:	00 02 00 
    5668:	8b 03                	mov    eax,DWORD PTR [ebx]
    566a:	c7 80 80 03 00 00 00 	mov    DWORD PTR [eax+0x380],0x10000000
    5671:	00 00 10 
    5674:	83 c4 18             	add    esp,0x18
    5677:	5b                   	pop    ebx
    5678:	c3                   	ret    
    5679:	90                   	nop
    567a:	66 90                	xchg   ax,ax

0000567c <_ZN4APIC18setupScheduleTicksEv>:
    567c:	56                   	push   esi
    567d:	53                   	push   ebx
    567e:	51                   	push   ecx
    567f:	e8 57 01 00 00       	call   57db <_ZN4APIC14wakeupSequenceEjh+0x73>
    5684:	05 74 5d 00 00       	add    eax,0x5d74
    5689:	8b 98 e4 fd ff ff    	mov    ebx,DWORD PTR [eax-0x21c]
    568f:	8b 13                	mov    edx,DWORD PTR [ebx]
    5691:	8b 4a 20             	mov    ecx,DWORD PTR [edx+0x20]
    5694:	8b b0 54 ff ff ff    	mov    esi,DWORD PTR [eax-0xac]
    569a:	39 0e                	cmp    DWORD PTR [esi],ecx
    569c:	74 32                	je     56d0 <_ZN4APIC18setupScheduleTicksEv+0x54>
    569e:	c7 82 f0 00 00 00 fe 	mov    DWORD PTR [edx+0xf0],0x1fe
    56a5:	01 00 00 
    56a8:	8b 03                	mov    eax,DWORD PTR [ebx]
    56aa:	c7 80 e0 03 00 00 20 	mov    DWORD PTR [eax+0x3e0],0x20
    56b1:	00 00 00 
    56b4:	8b 03                	mov    eax,DWORD PTR [ebx]
    56b6:	c7 80 20 03 00 00 20 	mov    DWORD PTR [eax+0x320],0x20020
    56bd:	00 02 00 
    56c0:	8b 03                	mov    eax,DWORD PTR [ebx]
    56c2:	c7 80 80 03 00 00 00 	mov    DWORD PTR [eax+0x380],0x10000000
    56c9:	00 00 10 
    56cc:	58                   	pop    eax
    56cd:	5b                   	pop    ebx
    56ce:	5e                   	pop    esi
    56cf:	c3                   	ret    
    56d0:	52                   	push   edx
    56d1:	ff b0 f0 ff ff ff    	push   DWORD PTR [eax-0x10]
    56d7:	ff b0 80 ff ff ff    	push   DWORD PTR [eax-0x80]
    56dd:	6a 20                	push   0x20
    56df:	e8 9c 03 00 00       	call   5a80 <Spurious+0x4>
    56e4:	8b 13                	mov    edx,DWORD PTR [ebx]
    56e6:	83 c4 10             	add    esp,0x10
    56e9:	eb b3                	jmp    569e <_ZN4APIC18setupScheduleTicksEv+0x22>
    56eb:	90                   	nop

000056ec <_ZN4APIC10triggerIPIEjh>:
    56ec:	57                   	push   edi
    56ed:	56                   	push   esi
    56ee:	53                   	push   ebx
    56ef:	83 ec 10             	sub    esp,0x10
    56f2:	e8 f9 fa ff ff       	call   51f0 <_Z13EnumerateMADTPFvP14MADTEntryLAPICEPFvP15MADTEntryIOAPICEPFvP12MADTEntryISRE+0x9c>
    56f7:	81 c3 01 5d 00 00    	add    ebx,0x5d01
    56fd:	8a 44 24 24          	mov    al,BYTE PTR [esp+0x24]
    5701:	89 c6                	mov    esi,eax
    5703:	8b 83 6c fd ff ff    	mov    eax,DWORD PTR [ebx-0x294]
    5709:	80 38 00             	cmp    BYTE PTR [eax],0x0
    570c:	75 3e                	jne    574c <_ZN4APIC10triggerIPIEjh+0x60>
    570e:	8b 8b e4 fd ff ff    	mov    ecx,DWORD PTR [ebx-0x21c]
    5714:	8b 19                	mov    ebx,DWORD PTR [ecx]
    5716:	8d 93 00 03 00 00    	lea    edx,[ebx+0x300]
    571c:	8b 02                	mov    eax,DWORD PTR [edx]
    571e:	f6 c4 10             	test   ah,0x10
    5721:	75 f9                	jne    571c <_ZN4APIC10triggerIPIEjh+0x30>
    5723:	8b 44 24 20          	mov    eax,DWORD PTR [esp+0x20]
    5727:	c1 e0 18             	shl    eax,0x18
    572a:	89 c7                	mov    edi,eax
    572c:	31 d2                	xor    edx,edx
    572e:	89 f0                	mov    eax,esi
    5730:	88 44 24 0f          	mov    BYTE PTR [esp+0xf],al
    5734:	88 c2                	mov    dl,al
    5736:	89 bb 10 03 00 00    	mov    DWORD PTR [ebx+0x310],edi
    573c:	8b 01                	mov    eax,DWORD PTR [ecx]
    573e:	89 90 00 03 00 00    	mov    DWORD PTR [eax+0x300],edx
    5744:	83 c4 10             	add    esp,0x10
    5747:	5b                   	pop    ebx
    5748:	5e                   	pop    esi
    5749:	5f                   	pop    edi
    574a:	c3                   	ret    
    574b:	90                   	nop
    574c:	83 ec 0c             	sub    esp,0xc
    574f:	8d 83 20 e7 ff ff    	lea    eax,[ebx-0x18e0]
    5755:	50                   	push   eax
    5756:	e8 55 ed ff ff       	call   44b0 <Dbg@plt>
    575b:	83 c4 10             	add    esp,0x10
    575e:	83 c4 10             	add    esp,0x10
    5761:	5b                   	pop    ebx
    5762:	5e                   	pop    esi
    5763:	5f                   	pop    edi
    5764:	c3                   	ret    
    5765:	90                   	nop
    5766:	66 90                	xchg   ax,ax

00005768 <_ZN4APIC14wakeupSequenceEjh>:
    5768:	53                   	push   ebx
    5769:	83 ec 08             	sub    esp,0x8
    576c:	e8 7f fa ff ff       	call   51f0 <_Z13EnumerateMADTPFvP14MADTEntryLAPICEPFvP15MADTEntryIOAPICEPFvP12MADTEntryISRE+0x9c>
    5771:	81 c3 87 5c 00 00    	add    ebx,0x5c87
    5777:	8b 44 24 14          	mov    eax,DWORD PTR [esp+0x14]
    577b:	8b 93 6c fd ff ff    	mov    edx,DWORD PTR [ebx-0x294]
    5781:	80 3a 00             	cmp    BYTE PTR [edx],0x0
    5784:	75 3e                	jne    57c4 <_ZN4APIC14wakeupSequenceEjh+0x5c>
    5786:	8b 4c 24 10          	mov    ecx,DWORD PTR [esp+0x10]
    578a:	c1 e1 18             	shl    ecx,0x18
    578d:	8b 93 e4 fd ff ff    	mov    edx,DWORD PTR [ebx-0x21c]
    5793:	8b 1a                	mov    ebx,DWORD PTR [edx]
    5795:	89 8b 10 03 00 00    	mov    DWORD PTR [ebx+0x310],ecx
    579b:	8b 1a                	mov    ebx,DWORD PTR [edx]
    579d:	c7 83 00 03 00 00 00 	mov    DWORD PTR [ebx+0x300],0x500
    57a4:	05 00 00 
    57a7:	0f b6 c0             	movzx  eax,al
    57aa:	80 cc 06             	or     ah,0x6
    57ad:	8b 1a                	mov    ebx,DWORD PTR [edx]
    57af:	89 8b 10 03 00 00    	mov    DWORD PTR [ebx+0x310],ecx
    57b5:	8b 12                	mov    edx,DWORD PTR [edx]
    57b7:	89 82 00 03 00 00    	mov    DWORD PTR [edx+0x300],eax
    57bd:	83 c4 08             	add    esp,0x8
    57c0:	5b                   	pop    ebx
    57c1:	c3                   	ret    
    57c2:	66 90                	xchg   ax,ax
    57c4:	83 ec 0c             	sub    esp,0xc
    57c7:	8d 83 4c e7 ff ff    	lea    eax,[ebx-0x18b4]
    57cd:	50                   	push   eax
    57ce:	e8 dd ec ff ff       	call   44b0 <Dbg@plt>
    57d3:	83 c4 10             	add    esp,0x10
    57d6:	83 c4 08             	add    esp,0x8
    57d9:	5b                   	pop    ebx
    57da:	c3                   	ret    
    57db:	8b 04 24             	mov    eax,DWORD PTR [esp]
    57de:	c3                   	ret    
    57df:	90                   	nop
    57e0:	53                   	push   ebx
    57e1:	83 ec 10             	sub    esp,0x10
    57e4:	e8 07 fa ff ff       	call   51f0 <_Z13EnumerateMADTPFvP14MADTEntryLAPICEPFvP15MADTEntryIOAPICEPFvP12MADTEntryISRE+0x9c>
    57e9:	81 c3 0f 5c 00 00    	add    ebx,0x5c0f
    57ef:	8a 44 24 18          	mov    al,BYTE PTR [esp+0x18]
    57f3:	83 c8 80             	or     eax,0xffffff80
    57f6:	0f b6 c0             	movzx  eax,al
    57f9:	50                   	push   eax
    57fa:	6a 70                	push   0x70
    57fc:	e8 1f ef ff ff       	call   4720 <WritePort@plt>
    5801:	c7 04 24 71 00 00 00 	mov    DWORD PTR [esp],0x71
    5808:	e8 f3 eb ff ff       	call   4400 <ReadPort@plt>
    580d:	83 c4 18             	add    esp,0x18
    5810:	5b                   	pop    ebx
    5811:	c3                   	ret    
    5812:	66 90                	xchg   ax,ax
    5814:	56                   	push   esi
    5815:	53                   	push   ebx
    5816:	83 ec 0c             	sub    esp,0xc
    5819:	e8 d2 f9 ff ff       	call   51f0 <_Z13EnumerateMADTPFvP14MADTEntryLAPICEPFvP15MADTEntryIOAPICEPFvP12MADTEntryISRE+0x9c>
    581e:	81 c3 da 5b 00 00    	add    ebx,0x5bda
    5824:	8b 74 24 1c          	mov    esi,DWORD PTR [esp+0x1c]
    5828:	8a 44 24 18          	mov    al,BYTE PTR [esp+0x18]
    582c:	83 c8 80             	or     eax,0xffffff80
    582f:	0f b6 c0             	movzx  eax,al
    5832:	50                   	push   eax
    5833:	6a 70                	push   0x70
    5835:	e8 e6 ee ff ff       	call   4720 <WritePort@plt>
    583a:	58                   	pop    eax
    583b:	5a                   	pop    edx
    583c:	89 f0                	mov    eax,esi
    583e:	0f b6 f0             	movzx  esi,al
    5841:	56                   	push   esi
    5842:	6a 71                	push   0x71
    5844:	e8 d7 ee ff ff       	call   4720 <WritePort@plt>
    5849:	83 c4 14             	add    esp,0x14
    584c:	5b                   	pop    ebx
    584d:	5e                   	pop    esi
    584e:	c3                   	ret    
    584f:	90                   	nop

00005850 <_ZN3HAL9CPUDriver11readRequestEPNS_9ProcessorE>:
    5850:	55                   	push   ebp
    5851:	57                   	push   edi
    5852:	56                   	push   esi
    5853:	53                   	push   ebx
    5854:	83 ec 18             	sub    esp,0x18
    5857:	e8 94 f9 ff ff       	call   51f0 <_Z13EnumerateMADTPFvP14MADTEntryLAPICEPFvP15MADTEntryIOAPICEPFvP12MADTEntryISRE+0x9c>
    585c:	81 c3 9c 5b 00 00    	add    ebx,0x5b9c
    5862:	8b 7c 24 2c          	mov    edi,DWORD PTR [esp+0x2c]
    5866:	8d af ec 00 00 00    	lea    ebp,[edi+0xec]
    586c:	55                   	push   ebp
    586d:	e8 ee eb ff ff       	call   4460 <SpinLock@plt>
    5872:	8b b7 e8 00 00 00    	mov    esi,DWORD PTR [edi+0xe8]
    5878:	83 c4 10             	add    esp,0x10
    587b:	85 f6                	test   esi,esi
    587d:	74 1e                	je     589d <_ZN3HAL9CPUDriver11readRequestEPNS_9ProcessorE+0x4d>
    587f:	8b 46 04             	mov    eax,DWORD PTR [esi+0x4]
    5882:	8b 16                	mov    edx,DWORD PTR [esi]
    5884:	89 10                	mov    DWORD PTR [eax],edx
    5886:	8b 16                	mov    edx,DWORD PTR [esi]
    5888:	89 42 04             	mov    DWORD PTR [edx+0x4],eax
    588b:	ff 8f e4 00 00 00    	dec    DWORD PTR [edi+0xe4]
    5891:	75 0a                	jne    589d <_ZN3HAL9CPUDriver11readRequestEPNS_9ProcessorE+0x4d>
    5893:	c7 87 e8 00 00 00 00 	mov    DWORD PTR [edi+0xe8],0x0
    589a:	00 00 00 
    589d:	83 ec 0c             	sub    esp,0xc
    58a0:	55                   	push   ebp
    58a1:	e8 8a eb ff ff       	call   4430 <SpinUnlock@plt>
    58a6:	89 f0                	mov    eax,esi
    58a8:	83 c4 1c             	add    esp,0x1c
    58ab:	5b                   	pop    ebx
    58ac:	5e                   	pop    esi
    58ad:	5f                   	pop    edi
    58ae:	5d                   	pop    ebp
    58af:	c3                   	ret    

000058b0 <_ZN3HAL9CPUDriver12writeRequestERNS_10IPIRequestEPNS_9ProcessorE>:
    58b0:	55                   	push   ebp
    58b1:	57                   	push   edi
    58b2:	56                   	push   esi
    58b3:	53                   	push   ebx
    58b4:	83 ec 18             	sub    esp,0x18
    58b7:	e8 34 f9 ff ff       	call   51f0 <_Z13EnumerateMADTPFvP14MADTEntryLAPICEPFvP15MADTEntryIOAPICEPFvP12MADTEntryISRE+0x9c>
    58bc:	81 c3 3c 5b 00 00    	add    ebx,0x5b3c
    58c2:	8b 7c 24 2c          	mov    edi,DWORD PTR [esp+0x2c]
    58c6:	8b 74 24 30          	mov    esi,DWORD PTR [esp+0x30]
    58ca:	8d ae ec 00 00 00    	lea    ebp,[esi+0xec]
    58d0:	55                   	push   ebp
    58d1:	e8 8a eb ff ff       	call   4460 <SpinLock@plt>
    58d6:	8b 86 e8 00 00 00    	mov    eax,DWORD PTR [esi+0xe8]
    58dc:	83 c4 10             	add    esp,0x10
    58df:	85 c0                	test   eax,eax
    58e1:	74 45                	je     5928 <_ZN3HAL9CPUDriver12writeRequestERNS_10IPIRequestEPNS_9ProcessorE+0x78>
    58e3:	89 07                	mov    DWORD PTR [edi],eax
    58e5:	8b 50 04             	mov    edx,DWORD PTR [eax+0x4]
    58e8:	89 57 04             	mov    DWORD PTR [edi+0x4],edx
    58eb:	8b 50 04             	mov    edx,DWORD PTR [eax+0x4]
    58ee:	89 3a                	mov    DWORD PTR [edx],edi
    58f0:	89 78 04             	mov    DWORD PTR [eax+0x4],edi
    58f3:	89 be e8 00 00 00    	mov    DWORD PTR [esi+0xe8],edi
    58f9:	ff 86 e4 00 00 00    	inc    DWORD PTR [esi+0xe4]
    58ff:	0f ae f0             	mfence 
    5902:	83 ec 0c             	sub    esp,0xc
    5905:	55                   	push   ebp
    5906:	e8 25 eb ff ff       	call   4430 <SpinUnlock@plt>
    590b:	58                   	pop    eax
    590c:	5a                   	pop    edx
    590d:	68 fd 00 00 00       	push   0xfd
    5912:	ff b6 f8 00 00 00    	push   DWORD PTR [esi+0xf8]
    5918:	e8 d3 ea ff ff       	call   43f0 <_ZN4APIC10triggerIPIEjh@plt>
    591d:	83 c4 1c             	add    esp,0x1c
    5920:	5b                   	pop    ebx
    5921:	5e                   	pop    esi
    5922:	5f                   	pop    edi
    5923:	5d                   	pop    ebp
    5924:	c3                   	ret    
    5925:	8d 76 00             	lea    esi,[esi+0x0]
    5928:	89 be e8 00 00 00    	mov    DWORD PTR [esi+0xe8],edi
    592e:	89 3f                	mov    DWORD PTR [edi],edi
    5930:	89 7f 04             	mov    DWORD PTR [edi+0x4],edi
    5933:	eb c4                	jmp    58f9 <_ZN3HAL9CPUDriver12writeRequestERNS_10IPIRequestEPNS_9ProcessorE+0x49>
    5935:	66 90                	xchg   ax,ax
    5937:	66 90                	xchg   ax,ax
    5939:	66 90                	xchg   ax,ax
    593b:	66 90                	xchg   ax,ax
    593d:	66 90                	xchg   ax,ax
    593f:	90                   	nop

00005940 <TestCPUID>:
    5940:	9c                   	pushf  
    5941:	9c                   	pushf  
    5942:	81 34 24 00 00 20 00 	xor    DWORD PTR [esp],0x200000
    5949:	9d                   	popf   
    594a:	9c                   	pushf  
    594b:	58                   	pop    eax
    594c:	33 04 24             	xor    eax,DWORD PTR [esp]
    594f:	9d                   	popf   
    5950:	25 00 00 20 00       	and    eax,0x200000
    5955:	c3                   	ret    

00005956 <__cpuid>:
    5956:	53                   	push   ebx
    5957:	52                   	push   edx
    5958:	8b 44 24 0c          	mov    eax,DWORD PTR [esp+0xc]
    595c:	8b 4c 24 10          	mov    ecx,DWORD PTR [esp+0x10]
    5960:	0f a2                	cpuid  
    5962:	55                   	push   ebp
    5963:	8b 6c 24 18          	mov    ebp,DWORD PTR [esp+0x18]
    5967:	89 45 00             	mov    DWORD PTR [ebp+0x0],eax
    596a:	89 5d 04             	mov    DWORD PTR [ebp+0x4],ebx
    596d:	89 4d 08             	mov    DWORD PTR [ebp+0x8],ecx
    5970:	89 55 0c             	mov    DWORD PTR [ebp+0xc],edx
    5973:	5d                   	pop    ebp
    5974:	5a                   	pop    edx
    5975:	5b                   	pop    ebx
    5976:	c3                   	ret    

00005977 <FindMaskWidth>:
    5977:	8b 44 24 04          	mov    eax,DWORD PTR [esp+0x4]
    597b:	b9 00 00 00 00       	mov    ecx,0x0
    5980:	48                   	dec    eax
    5981:	66 0f bd c8          	bsr    cx,ax
    5985:	74 02                	je     5989 <FindMaskWidth+0x12>
    5987:	66 41                	inc    cx
    5989:	89 c8                	mov    eax,ecx
    598b:	c3                   	ret    
    598c:	55                   	push   ebp
    598d:	57                   	push   edi
    598e:	56                   	push   esi
    598f:	53                   	push   ebx
    5990:	8b 74 24 18          	mov    esi,DWORD PTR [esp+0x18]
    5994:	8b 6c 24 1c          	mov    ebp,DWORD PTR [esp+0x1c]
    5998:	8b 5c 24 20          	mov    ebx,DWORD PTR [esp+0x20]
    599c:	8b 4c 24 24          	mov    ecx,DWORD PTR [esp+0x24]
    59a0:	0f b7 44 24 14       	movzx  eax,WORD PTR [esp+0x14]
    59a5:	8b 54 24 28          	mov    edx,DWORD PTR [esp+0x28]
    59a9:	8d 04 c2             	lea    eax,[edx+eax*8]
    59ac:	66 89 70 02          	mov    WORD PTR [eax+0x2],si
    59b0:	89 f7                	mov    edi,esi
    59b2:	c1 ef 10             	shr    edi,0x10
    59b5:	89 fa                	mov    edx,edi
    59b7:	88 50 04             	mov    BYTE PTR [eax+0x4],dl
    59ba:	c1 ee 18             	shr    esi,0x18
    59bd:	89 f2                	mov    edx,esi
    59bf:	88 50 07             	mov    BYTE PTR [eax+0x7],dl
    59c2:	66 89 28             	mov    WORD PTR [eax],bp
    59c5:	89 ea                	mov    edx,ebp
    59c7:	c1 ea 10             	shr    edx,0x10
    59ca:	83 e2 0f             	and    edx,0xf
    59cd:	c1 e1 04             	shl    ecx,0x4
    59d0:	09 ca                	or     edx,ecx
    59d2:	88 50 06             	mov    BYTE PTR [eax+0x6],dl
    59d5:	88 58 05             	mov    BYTE PTR [eax+0x5],bl
    59d8:	5b                   	pop    ebx
    59d9:	5e                   	pop    esi
    59da:	5f                   	pop    edi
    59db:	5d                   	pop    ebp
    59dc:	c3                   	ret    
    59dd:	8d 76 00             	lea    esi,[esi+0x0]

000059e0 <SetupGDT>:
    59e0:	53                   	push   ebx
    59e1:	83 ec 14             	sub    esp,0x14
    59e4:	e8 07 f8 ff ff       	call   51f0 <_Z13EnumerateMADTPFvP14MADTEntryLAPICEPFvP15MADTEntryIOAPICEPFvP12MADTEntryISRE+0x9c>
    59e9:	81 c3 0f 5a 00 00    	add    ebx,0x5a0f
    59ef:	8b 44 24 1c          	mov    eax,DWORD PTR [esp+0x1c]
    59f3:	66 c7 80 48 04 00 00 	mov    WORD PTR [eax+0x448],0x2f
    59fa:	2f 00 
    59fc:	8d 90 18 04 00 00    	lea    edx,[eax+0x418]
    5a02:	89 90 4a 04 00 00    	mov    DWORD PTR [eax+0x44a],edx
    5a08:	c7 80 18 04 00 00 00 	mov    DWORD PTR [eax+0x418],0x0
    5a0f:	00 00 00 
    5a12:	c7 80 1c 04 00 00 00 	mov    DWORD PTR [eax+0x41c],0x0
    5a19:	00 00 00 
    5a1c:	c7 80 20 04 00 00 ff 	mov    DWORD PTR [eax+0x420],0xffff
    5a23:	ff 00 00 
    5a26:	c7 80 24 04 00 00 00 	mov    DWORD PTR [eax+0x424],0xff9a00
    5a2d:	9a ff 00 
    5a30:	c7 80 28 04 00 00 ff 	mov    DWORD PTR [eax+0x428],0xffff
    5a37:	ff 00 00 
    5a3a:	c7 80 2c 04 00 00 00 	mov    DWORD PTR [eax+0x42c],0xff9200
    5a41:	92 ff 00 
    5a44:	c7 80 30 04 00 00 ff 	mov    DWORD PTR [eax+0x430],0xffff
    5a4b:	ff 00 00 
    5a4e:	c7 80 34 04 00 00 00 	mov    DWORD PTR [eax+0x434],0xfffa00
    5a55:	fa ff 00 
    5a58:	c7 80 38 04 00 00 ff 	mov    DWORD PTR [eax+0x438],0xffff
    5a5f:	ff 00 00 
    5a62:	c7 80 3c 04 00 00 00 	mov    DWORD PTR [eax+0x43c],0xfff200
    5a69:	f2 ff 00 
    5a6c:	05 48 04 00 00       	add    eax,0x448
    5a71:	50                   	push   eax
    5a72:	e8 49 ec ff ff       	call   46c0 <ExecuteLGDT@plt>
    5a77:	83 c4 18             	add    esp,0x18
    5a7a:	5b                   	pop    ebx
    5a7b:	c3                   	ret    

00005a7c <Spurious>:
    5a7c:	eb fe                	jmp    5a7c <Spurious>
    5a7e:	66 90                	xchg   ax,ax
    5a80:	8b 54 24 08          	mov    edx,DWORD PTR [esp+0x8]
    5a84:	0f b7 44 24 04       	movzx  eax,WORD PTR [esp+0x4]
    5a89:	8b 4c 24 0c          	mov    ecx,DWORD PTR [esp+0xc]
    5a8d:	8d 04 c1             	lea    eax,[ecx+eax*8]
    5a90:	66 89 10             	mov    WORD PTR [eax],dx
    5a93:	c7 40 02 08 00 00 8e 	mov    DWORD PTR [eax+0x2],0x8e000008
    5a9a:	c1 ea 10             	shr    edx,0x10
    5a9d:	66 89 50 06          	mov    WORD PTR [eax+0x6],dx
    5aa1:	c3                   	ret    
    5aa2:	66 90                	xchg   ax,ax

00005aa4 <DisablePIC>:
    5aa4:	53                   	push   ebx
    5aa5:	83 ec 10             	sub    esp,0x10
    5aa8:	e8 43 f7 ff ff       	call   51f0 <_Z13EnumerateMADTPFvP14MADTEntryLAPICEPFvP15MADTEntryIOAPICEPFvP12MADTEntryISRE+0x9c>
    5aad:	81 c3 4b 59 00 00    	add    ebx,0x594b
    5ab3:	6a 11                	push   0x11
    5ab5:	68 a0 00 00 00       	push   0xa0
    5aba:	e8 61 ec ff ff       	call   4720 <WritePort@plt>
    5abf:	eb 00                	jmp    5ac1 <DisablePIC+0x1d>
    5ac1:	eb 00                	jmp    5ac3 <DisablePIC+0x1f>
    5ac3:	58                   	pop    eax
    5ac4:	5a                   	pop    edx
    5ac5:	6a 11                	push   0x11
    5ac7:	6a 20                	push   0x20
    5ac9:	e8 52 ec ff ff       	call   4720 <WritePort@plt>
    5ace:	eb 00                	jmp    5ad0 <DisablePIC+0x2c>
    5ad0:	eb 00                	jmp    5ad2 <DisablePIC+0x2e>
    5ad2:	59                   	pop    ecx
    5ad3:	58                   	pop    eax
    5ad4:	6a 30                	push   0x30
    5ad6:	68 a1 00 00 00       	push   0xa1
    5adb:	e8 40 ec ff ff       	call   4720 <WritePort@plt>
    5ae0:	eb 00                	jmp    5ae2 <DisablePIC+0x3e>
    5ae2:	eb 00                	jmp    5ae4 <DisablePIC+0x40>
    5ae4:	58                   	pop    eax
    5ae5:	5a                   	pop    edx
    5ae6:	6a 40                	push   0x40
    5ae8:	6a 21                	push   0x21
    5aea:	e8 31 ec ff ff       	call   4720 <WritePort@plt>
    5aef:	eb 00                	jmp    5af1 <DisablePIC+0x4d>
    5af1:	eb 00                	jmp    5af3 <DisablePIC+0x4f>
    5af3:	59                   	pop    ecx
    5af4:	58                   	pop    eax
    5af5:	6a 04                	push   0x4
    5af7:	68 a1 00 00 00       	push   0xa1
    5afc:	e8 1f ec ff ff       	call   4720 <WritePort@plt>
    5b01:	eb 00                	jmp    5b03 <DisablePIC+0x5f>
    5b03:	eb 00                	jmp    5b05 <DisablePIC+0x61>
    5b05:	58                   	pop    eax
    5b06:	5a                   	pop    edx
    5b07:	6a 02                	push   0x2
    5b09:	6a 21                	push   0x21
    5b0b:	e8 10 ec ff ff       	call   4720 <WritePort@plt>
    5b10:	eb 00                	jmp    5b12 <DisablePIC+0x6e>
    5b12:	eb 00                	jmp    5b14 <DisablePIC+0x70>
    5b14:	59                   	pop    ecx
    5b15:	58                   	pop    eax
    5b16:	6a 01                	push   0x1
    5b18:	68 a1 00 00 00       	push   0xa1
    5b1d:	e8 fe eb ff ff       	call   4720 <WritePort@plt>
    5b22:	eb 00                	jmp    5b24 <DisablePIC+0x80>
    5b24:	eb 00                	jmp    5b26 <DisablePIC+0x82>
    5b26:	58                   	pop    eax
    5b27:	5a                   	pop    edx
    5b28:	6a 01                	push   0x1
    5b2a:	6a 21                	push   0x21
    5b2c:	e8 ef eb ff ff       	call   4720 <WritePort@plt>
    5b31:	eb 00                	jmp    5b33 <DisablePIC+0x8f>
    5b33:	eb 00                	jmp    5b35 <DisablePIC+0x91>
    5b35:	59                   	pop    ecx
    5b36:	58                   	pop    eax
    5b37:	68 ff 00 00 00       	push   0xff
    5b3c:	68 a1 00 00 00       	push   0xa1
    5b41:	e8 da eb ff ff       	call   4720 <WritePort@plt>
    5b46:	58                   	pop    eax
    5b47:	5a                   	pop    edx
    5b48:	68 ff 00 00 00       	push   0xff
    5b4d:	6a 21                	push   0x21
    5b4f:	e8 cc eb ff ff       	call   4720 <WritePort@plt>
    5b54:	83 c4 18             	add    esp,0x18
    5b57:	5b                   	pop    ebx
    5b58:	c3                   	ret    
    5b59:	8d 76 00             	lea    esi,[esi+0x0]

00005b5c <MapIDT>:
    5b5c:	56                   	push   esi
    5b5d:	53                   	push   ebx
    5b5e:	83 ec 08             	sub    esp,0x8
    5b61:	e8 8a f6 ff ff       	call   51f0 <_Z13EnumerateMADTPFvP14MADTEntryLAPICEPFvP15MADTEntryIOAPICEPFvP12MADTEntryISRE+0x9c>
    5b66:	81 c3 92 58 00 00    	add    ebx,0x5892
    5b6c:	68 00 08 00 00       	push   0x800
    5b71:	6a 00                	push   0x0
    5b73:	8b b3 f0 ff ff ff    	mov    esi,DWORD PTR [ebx-0x10]
    5b79:	56                   	push   esi
    5b7a:	e8 51 eb ff ff       	call   46d0 <_Z7memsetfPvmm@plt>
    5b7f:	8b 83 f4 fd ff ff    	mov    eax,DWORD PTR [ebx-0x20c]
    5b85:	66 89 46 40          	mov    WORD PTR [esi+0x40],ax
    5b89:	c7 46 42 08 00 00 8e 	mov    DWORD PTR [esi+0x42],0x8e000008
    5b90:	c1 e8 10             	shr    eax,0x10
    5b93:	66 89 46 46          	mov    WORD PTR [esi+0x46],ax
    5b97:	8b 83 4c fe ff ff    	mov    eax,DWORD PTR [ebx-0x1b4]
    5b9d:	66 89 46 50          	mov    WORD PTR [esi+0x50],ax
    5ba1:	c7 46 52 08 00 00 8e 	mov    DWORD PTR [esi+0x52],0x8e000008
    5ba8:	c1 e8 10             	shr    eax,0x10
    5bab:	66 89 46 56          	mov    WORD PTR [esi+0x56],ax
    5baf:	8b 83 18 fe ff ff    	mov    eax,DWORD PTR [ebx-0x1e8]
    5bb5:	66 89 46 58          	mov    WORD PTR [esi+0x58],ax
    5bb9:	c7 46 5a 08 00 00 8e 	mov    DWORD PTR [esi+0x5a],0x8e000008
    5bc0:	c1 e8 10             	shr    eax,0x10
    5bc3:	66 89 46 5e          	mov    WORD PTR [esi+0x5e],ax
    5bc7:	8b 83 ec fd ff ff    	mov    eax,DWORD PTR [ebx-0x214]
    5bcd:	66 89 46 68          	mov    WORD PTR [esi+0x68],ax
    5bd1:	c7 46 6a 08 00 00 8e 	mov    DWORD PTR [esi+0x6a],0x8e000008
    5bd8:	c1 e8 10             	shr    eax,0x10
    5bdb:	66 89 46 6e          	mov    WORD PTR [esi+0x6e],ax
    5bdf:	8b 83 20 fd ff ff    	mov    eax,DWORD PTR [ebx-0x2e0]
    5be5:	66 89 46 70          	mov    WORD PTR [esi+0x70],ax
    5be9:	c7 46 72 08 00 00 8e 	mov    DWORD PTR [esi+0x72],0x8e000008
    5bf0:	c1 e8 10             	shr    eax,0x10
    5bf3:	66 89 46 76          	mov    WORD PTR [esi+0x76],ax
    5bf7:	8b 83 9c ff ff ff    	mov    eax,DWORD PTR [ebx-0x64]
    5bfd:	66 89 86 e8 07 00 00 	mov    WORD PTR [esi+0x7e8],ax
    5c04:	c7 86 ea 07 00 00 08 	mov    DWORD PTR [esi+0x7ea],0x8e000008
    5c0b:	00 00 8e 
    5c0e:	c1 e8 10             	shr    eax,0x10
    5c11:	66 89 86 ee 07 00 00 	mov    WORD PTR [esi+0x7ee],ax
    5c18:	8b 83 30 fe ff ff    	mov    eax,DWORD PTR [ebx-0x1d0]
    5c1e:	66 89 86 f0 07 00 00 	mov    WORD PTR [esi+0x7f0],ax
    5c25:	c7 86 f2 07 00 00 08 	mov    DWORD PTR [esi+0x7f2],0x8e000008
    5c2c:	00 00 8e 
    5c2f:	c1 e8 10             	shr    eax,0x10
    5c32:	66 89 86 f6 07 00 00 	mov    WORD PTR [esi+0x7f6],ax
    5c39:	c7 86 02 01 00 00 08 	mov    DWORD PTR [esi+0x102],0x8e000008
    5c40:	00 00 8e 
    5c43:	8b 83 68 fe ff ff    	mov    eax,DWORD PTR [ebx-0x198]
    5c49:	66 89 86 00 01 00 00 	mov    WORD PTR [esi+0x100],ax
    5c50:	c1 e8 10             	shr    eax,0x10
    5c53:	66 89 86 06 01 00 00 	mov    WORD PTR [esi+0x106],ax
    5c5a:	8b 83 ac fe ff ff    	mov    eax,DWORD PTR [ebx-0x154]
    5c60:	66 89 86 08 01 00 00 	mov    WORD PTR [esi+0x108],ax
    5c67:	c7 86 0a 01 00 00 08 	mov    DWORD PTR [esi+0x10a],0x8e000008
    5c6e:	00 00 8e 
    5c71:	c1 e8 10             	shr    eax,0x10
    5c74:	66 89 86 0e 01 00 00 	mov    WORD PTR [esi+0x10e],ax
    5c7b:	8b 83 50 fd ff ff    	mov    eax,DWORD PTR [ebx-0x2b0]
    5c81:	66 89 86 10 01 00 00 	mov    WORD PTR [esi+0x110],ax
    5c88:	c7 86 12 01 00 00 08 	mov    DWORD PTR [esi+0x112],0x8e000008
    5c8f:	00 00 8e 
    5c92:	c1 e8 10             	shr    eax,0x10
    5c95:	66 89 86 16 01 00 00 	mov    WORD PTR [esi+0x116],ax
    5c9c:	8b 93 cc fd ff ff    	mov    edx,DWORD PTR [ebx-0x234]
    5ca2:	66 89 96 18 01 00 00 	mov    WORD PTR [esi+0x118],dx
    5ca9:	66 c7 86 1a 01 00 00 	mov    WORD PTR [esi+0x11a],0x8
    5cb0:	08 00 
    5cb2:	c6 86 1c 01 00 00 00 	mov    BYTE PTR [esi+0x11c],0x0
    5cb9:	8a 86 1d 01 00 00    	mov    al,BYTE PTR [esi+0x11d]
    5cbf:	83 e0 f0             	and    eax,0xfffffff0
    5cc2:	83 c8 0e             	or     eax,0xe
    5cc5:	83 e0 8f             	and    eax,0xffffff8f
    5cc8:	83 c8 80             	or     eax,0xffffff80
    5ccb:	88 86 1d 01 00 00    	mov    BYTE PTR [esi+0x11d],al
    5cd1:	c1 ea 10             	shr    edx,0x10
    5cd4:	66 89 96 1e 01 00 00 	mov    WORD PTR [esi+0x11e],dx
    5cdb:	8b 83 e4 ff ff ff    	mov    eax,DWORD PTR [ebx-0x1c]
    5ce1:	66 89 86 20 01 00 00 	mov    WORD PTR [esi+0x120],ax
    5ce8:	c7 86 22 01 00 00 08 	mov    DWORD PTR [esi+0x122],0x8e000008
    5cef:	00 00 8e 
    5cf2:	c1 e8 10             	shr    eax,0x10
    5cf5:	66 89 86 26 01 00 00 	mov    WORD PTR [esi+0x126],ax
    5cfc:	8b 83 a4 ff ff ff    	mov    eax,DWORD PTR [ebx-0x5c]
    5d02:	66 89 86 28 01 00 00 	mov    WORD PTR [esi+0x128],ax
    5d09:	c7 86 2a 01 00 00 08 	mov    DWORD PTR [esi+0x12a],0x8e000008
    5d10:	00 00 8e 
    5d13:	c1 e8 10             	shr    eax,0x10
    5d16:	66 89 86 2e 01 00 00 	mov    WORD PTR [esi+0x12e],ax
    5d1d:	8b 83 e0 fd ff ff    	mov    eax,DWORD PTR [ebx-0x220]
    5d23:	66 89 86 30 01 00 00 	mov    WORD PTR [esi+0x130],ax
    5d2a:	c7 86 32 01 00 00 08 	mov    DWORD PTR [esi+0x132],0x8e000008
    5d31:	00 00 8e 
    5d34:	c1 e8 10             	shr    eax,0x10
    5d37:	66 89 86 36 01 00 00 	mov    WORD PTR [esi+0x136],ax
    5d3e:	8b 83 78 fe ff ff    	mov    eax,DWORD PTR [ebx-0x188]
    5d44:	66 89 86 38 01 00 00 	mov    WORD PTR [esi+0x138],ax
    5d4b:	c7 86 3a 01 00 00 08 	mov    DWORD PTR [esi+0x13a],0x8e000008
    5d52:	00 00 8e 
    5d55:	c1 e8 10             	shr    eax,0x10
    5d58:	66 89 86 3e 01 00 00 	mov    WORD PTR [esi+0x13e],ax
    5d5f:	8b 83 e4 fe ff ff    	mov    eax,DWORD PTR [ebx-0x11c]
    5d65:	66 89 86 40 01 00 00 	mov    WORD PTR [esi+0x140],ax
    5d6c:	c7 86 42 01 00 00 08 	mov    DWORD PTR [esi+0x142],0x8e000008
    5d73:	00 00 8e 
    5d76:	c1 e8 10             	shr    eax,0x10
    5d79:	66 89 86 46 01 00 00 	mov    WORD PTR [esi+0x146],ax
    5d80:	8b 83 68 ff ff ff    	mov    eax,DWORD PTR [ebx-0x98]
    5d86:	66 89 86 48 01 00 00 	mov    WORD PTR [esi+0x148],ax
    5d8d:	c7 86 4a 01 00 00 08 	mov    DWORD PTR [esi+0x14a],0x8e000008
    5d94:	00 00 8e 
    5d97:	c1 e8 10             	shr    eax,0x10
    5d9a:	66 89 86 4e 01 00 00 	mov    WORD PTR [esi+0x14e],ax
    5da1:	8b 83 dc ff ff ff    	mov    eax,DWORD PTR [ebx-0x24]
    5da7:	66 89 86 50 01 00 00 	mov    WORD PTR [esi+0x150],ax
    5dae:	c7 86 52 01 00 00 08 	mov    DWORD PTR [esi+0x152],0x8e000008
    5db5:	00 00 8e 
    5db8:	c1 e8 10             	shr    eax,0x10
    5dbb:	66 89 86 56 01 00 00 	mov    WORD PTR [esi+0x156],ax
    5dc2:	8b 83 20 ff ff ff    	mov    eax,DWORD PTR [ebx-0xe0]
    5dc8:	66 89 86 58 01 00 00 	mov    WORD PTR [esi+0x158],ax
    5dcf:	c7 86 5a 01 00 00 08 	mov    DWORD PTR [esi+0x15a],0x8e000008
    5dd6:	00 00 8e 
    5dd9:	c1 e8 10             	shr    eax,0x10
    5ddc:	66 89 86 5e 01 00 00 	mov    WORD PTR [esi+0x15e],ax
    5de3:	8b 83 6c ff ff ff    	mov    eax,DWORD PTR [ebx-0x94]
    5de9:	66 89 86 60 01 00 00 	mov    WORD PTR [esi+0x160],ax
    5df0:	c7 86 62 01 00 00 08 	mov    DWORD PTR [esi+0x162],0x8e000008
    5df7:	00 00 8e 
    5dfa:	c1 e8 10             	shr    eax,0x10
    5dfd:	66 89 86 66 01 00 00 	mov    WORD PTR [esi+0x166],ax
    5e04:	8b 83 b0 fe ff ff    	mov    eax,DWORD PTR [ebx-0x150]
    5e0a:	66 89 86 68 01 00 00 	mov    WORD PTR [esi+0x168],ax
    5e11:	c7 86 6a 01 00 00 08 	mov    DWORD PTR [esi+0x16a],0x8e000008
    5e18:	00 00 8e 
    5e1b:	c1 e8 10             	shr    eax,0x10
    5e1e:	66 89 86 6e 01 00 00 	mov    WORD PTR [esi+0x16e],ax
    5e25:	8b 83 88 fe ff ff    	mov    eax,DWORD PTR [ebx-0x178]
    5e2b:	66 89 86 70 01 00 00 	mov    WORD PTR [esi+0x170],ax
    5e32:	66 c7 86 72 01 00 00 	mov    WORD PTR [esi+0x172],0x8
    5e39:	08 00 
    5e3b:	c6 86 74 01 00 00 00 	mov    BYTE PTR [esi+0x174],0x0
    5e42:	c6 86 75 01 00 00 8e 	mov    BYTE PTR [esi+0x175],0x8e
    5e49:	c1 e8 10             	shr    eax,0x10
    5e4c:	66 89 86 76 01 00 00 	mov    WORD PTR [esi+0x176],ax
    5e53:	8b 83 f4 fe ff ff    	mov    eax,DWORD PTR [ebx-0x10c]
    5e59:	66 89 86 78 01 00 00 	mov    WORD PTR [esi+0x178],ax
    5e60:	c7 86 7a 01 00 00 08 	mov    DWORD PTR [esi+0x17a],0x8e000008
    5e67:	00 00 8e 
    5e6a:	c1 e8 10             	shr    eax,0x10
    5e6d:	66 89 86 7e 01 00 00 	mov    WORD PTR [esi+0x17e],ax
    5e74:	8b 83 88 ff ff ff    	mov    eax,DWORD PTR [ebx-0x78]
    5e7a:	66 89 86 80 01 00 00 	mov    WORD PTR [esi+0x180],ax
    5e81:	c7 86 82 01 00 00 08 	mov    DWORD PTR [esi+0x182],0x8e000008
    5e88:	00 00 8e 
    5e8b:	c1 e8 10             	shr    eax,0x10
    5e8e:	66 89 86 86 01 00 00 	mov    WORD PTR [esi+0x186],ax
    5e95:	8b 83 10 fe ff ff    	mov    eax,DWORD PTR [ebx-0x1f0]
    5e9b:	66 89 86 88 01 00 00 	mov    WORD PTR [esi+0x188],ax
    5ea2:	c7 86 8a 01 00 00 08 	mov    DWORD PTR [esi+0x18a],0x8e000008
    5ea9:	00 00 8e 
    5eac:	c1 e8 10             	shr    eax,0x10
    5eaf:	66 89 86 8e 01 00 00 	mov    WORD PTR [esi+0x18e],ax
    5eb6:	8b 83 3c ff ff ff    	mov    eax,DWORD PTR [ebx-0xc4]
    5ebc:	66 89 86 90 01 00 00 	mov    WORD PTR [esi+0x190],ax
    5ec3:	c7 86 92 01 00 00 08 	mov    DWORD PTR [esi+0x192],0x8e000008
    5eca:	00 00 8e 
    5ecd:	c1 e8 10             	shr    eax,0x10
    5ed0:	66 89 86 96 01 00 00 	mov    WORD PTR [esi+0x196],ax
    5ed7:	8b 83 4c fd ff ff    	mov    eax,DWORD PTR [ebx-0x2b4]
    5edd:	66 89 86 98 01 00 00 	mov    WORD PTR [esi+0x198],ax
    5ee4:	c7 86 9a 01 00 00 08 	mov    DWORD PTR [esi+0x19a],0x8e000008
    5eeb:	00 00 8e 
    5eee:	c1 e8 10             	shr    eax,0x10
    5ef1:	66 89 86 9e 01 00 00 	mov    WORD PTR [esi+0x19e],ax
    5ef8:	8b 83 bc fd ff ff    	mov    eax,DWORD PTR [ebx-0x244]
    5efe:	66 89 86 a0 01 00 00 	mov    WORD PTR [esi+0x1a0],ax
    5f05:	c7 86 a2 01 00 00 08 	mov    DWORD PTR [esi+0x1a2],0x8e000008
    5f0c:	00 00 8e 
    5f0f:	c1 e8 10             	shr    eax,0x10
    5f12:	66 89 86 a6 01 00 00 	mov    WORD PTR [esi+0x1a6],ax
    5f19:	8b 83 4c ff ff ff    	mov    eax,DWORD PTR [ebx-0xb4]
    5f1f:	66 89 86 a8 01 00 00 	mov    WORD PTR [esi+0x1a8],ax
    5f26:	c7 86 aa 01 00 00 08 	mov    DWORD PTR [esi+0x1aa],0x8e000008
    5f2d:	00 00 8e 
    5f30:	c1 e8 10             	shr    eax,0x10
    5f33:	66 89 86 ae 01 00 00 	mov    WORD PTR [esi+0x1ae],ax
    5f3a:	8b 83 a8 fe ff ff    	mov    eax,DWORD PTR [ebx-0x158]
    5f40:	66 89 86 b0 01 00 00 	mov    WORD PTR [esi+0x1b0],ax
    5f47:	c7 86 b2 01 00 00 08 	mov    DWORD PTR [esi+0x1b2],0x8e000008
    5f4e:	00 00 8e 
    5f51:	c1 e8 10             	shr    eax,0x10
    5f54:	66 89 86 b6 01 00 00 	mov    WORD PTR [esi+0x1b6],ax
    5f5b:	8b 83 74 fe ff ff    	mov    eax,DWORD PTR [ebx-0x18c]
    5f61:	66 89 86 b8 01 00 00 	mov    WORD PTR [esi+0x1b8],ax
    5f68:	c7 86 ba 01 00 00 08 	mov    DWORD PTR [esi+0x1ba],0x8e000008
    5f6f:	00 00 8e 
    5f72:	c1 e8 10             	shr    eax,0x10
    5f75:	66 89 86 be 01 00 00 	mov    WORD PTR [esi+0x1be],ax
    5f7c:	8b 83 c0 fd ff ff    	mov    eax,DWORD PTR [ebx-0x240]
    5f82:	66 89 86 c0 01 00 00 	mov    WORD PTR [esi+0x1c0],ax
    5f89:	c7 86 c2 01 00 00 08 	mov    DWORD PTR [esi+0x1c2],0x8e000008
    5f90:	00 00 8e 
    5f93:	c1 e8 10             	shr    eax,0x10
    5f96:	66 89 86 c6 01 00 00 	mov    WORD PTR [esi+0x1c6],ax
    5f9d:	8b 83 00 fe ff ff    	mov    eax,DWORD PTR [ebx-0x200]
    5fa3:	66 89 86 c8 01 00 00 	mov    WORD PTR [esi+0x1c8],ax
    5faa:	c7 86 ca 01 00 00 08 	mov    DWORD PTR [esi+0x1ca],0x8e000008
    5fb1:	00 00 8e 
    5fb4:	c1 e8 10             	shr    eax,0x10
    5fb7:	66 89 86 ce 01 00 00 	mov    WORD PTR [esi+0x1ce],ax
    5fbe:	8b 83 90 ff ff ff    	mov    eax,DWORD PTR [ebx-0x70]
    5fc4:	66 89 86 d0 01 00 00 	mov    WORD PTR [esi+0x1d0],ax
    5fcb:	c7 86 d2 01 00 00 08 	mov    DWORD PTR [esi+0x1d2],0x8e000008
    5fd2:	00 00 8e 
    5fd5:	c1 e8 10             	shr    eax,0x10
    5fd8:	66 89 86 d6 01 00 00 	mov    WORD PTR [esi+0x1d6],ax
    5fdf:	8b 83 24 fd ff ff    	mov    eax,DWORD PTR [ebx-0x2dc]
    5fe5:	66 89 86 d8 01 00 00 	mov    WORD PTR [esi+0x1d8],ax
    5fec:	c7 86 da 01 00 00 08 	mov    DWORD PTR [esi+0x1da],0x8e000008
    5ff3:	00 00 8e 
    5ff6:	c1 e8 10             	shr    eax,0x10
    5ff9:	66 89 86 de 01 00 00 	mov    WORD PTR [esi+0x1de],ax
    6000:	8b 83 50 ff ff ff    	mov    eax,DWORD PTR [ebx-0xb0]
    6006:	66 89 86 e0 01 00 00 	mov    WORD PTR [esi+0x1e0],ax
    600d:	c7 86 e2 01 00 00 08 	mov    DWORD PTR [esi+0x1e2],0x8e000008
    6014:	00 00 8e 
    6017:	c1 e8 10             	shr    eax,0x10
    601a:	66 89 86 e6 01 00 00 	mov    WORD PTR [esi+0x1e6],ax
    6021:	8b 83 04 fe ff ff    	mov    eax,DWORD PTR [ebx-0x1fc]
    6027:	66 89 86 e8 01 00 00 	mov    WORD PTR [esi+0x1e8],ax
    602e:	c7 86 ea 01 00 00 08 	mov    DWORD PTR [esi+0x1ea],0x8e000008
    6035:	00 00 8e 
    6038:	c1 e8 10             	shr    eax,0x10
    603b:	66 89 86 ee 01 00 00 	mov    WORD PTR [esi+0x1ee],ax
    6042:	8b 83 90 fe ff ff    	mov    eax,DWORD PTR [ebx-0x170]
    6048:	66 89 86 f0 01 00 00 	mov    WORD PTR [esi+0x1f0],ax
    604f:	c7 86 f2 01 00 00 08 	mov    DWORD PTR [esi+0x1f2],0x8e000008
    6056:	00 00 8e 
    6059:	c1 e8 10             	shr    eax,0x10
    605c:	66 89 86 f6 01 00 00 	mov    WORD PTR [esi+0x1f6],ax
    6063:	8b 83 e0 fe ff ff    	mov    eax,DWORD PTR [ebx-0x120]
    6069:	66 89 86 f8 01 00 00 	mov    WORD PTR [esi+0x1f8],ax
    6070:	c7 86 fa 01 00 00 08 	mov    DWORD PTR [esi+0x1fa],0x8e000008
    6077:	00 00 8e 
    607a:	c1 e8 10             	shr    eax,0x10
    607d:	66 89 86 fe 01 00 00 	mov    WORD PTR [esi+0x1fe],ax
    6084:	8b 83 94 fd ff ff    	mov    eax,DWORD PTR [ebx-0x26c]
    608a:	66 89 86 00 02 00 00 	mov    WORD PTR [esi+0x200],ax
    6091:	c7 86 02 02 00 00 08 	mov    DWORD PTR [esi+0x202],0x8e000008
    6098:	00 00 8e 
    609b:	c1 e8 10             	shr    eax,0x10
    609e:	66 89 86 06 02 00 00 	mov    WORD PTR [esi+0x206],ax
    60a5:	8b 83 cc ff ff ff    	mov    eax,DWORD PTR [ebx-0x34]
    60ab:	66 89 86 08 02 00 00 	mov    WORD PTR [esi+0x208],ax
    60b2:	c7 86 0a 02 00 00 08 	mov    DWORD PTR [esi+0x20a],0x8e000008
    60b9:	00 00 8e 
    60bc:	c1 e8 10             	shr    eax,0x10
    60bf:	66 89 86 0e 02 00 00 	mov    WORD PTR [esi+0x20e],ax
    60c6:	8b 83 0c fd ff ff    	mov    eax,DWORD PTR [ebx-0x2f4]
    60cc:	66 89 86 10 02 00 00 	mov    WORD PTR [esi+0x210],ax
    60d3:	c7 86 12 02 00 00 08 	mov    DWORD PTR [esi+0x212],0x8e000008
    60da:	00 00 8e 
    60dd:	c1 e8 10             	shr    eax,0x10
    60e0:	66 89 86 16 02 00 00 	mov    WORD PTR [esi+0x216],ax
    60e7:	8b 93 60 ff ff ff    	mov    edx,DWORD PTR [ebx-0xa0]
    60ed:	66 89 96 18 02 00 00 	mov    WORD PTR [esi+0x218],dx
    60f4:	66 c7 86 1a 02 00 00 	mov    WORD PTR [esi+0x21a],0x8
    60fb:	08 00 
    60fd:	c6 86 1c 02 00 00 00 	mov    BYTE PTR [esi+0x21c],0x0
    6104:	8a 86 1d 02 00 00    	mov    al,BYTE PTR [esi+0x21d]
    610a:	83 e0 f0             	and    eax,0xfffffff0
    610d:	83 c8 0e             	or     eax,0xe
    6110:	83 e0 8f             	and    eax,0xffffff8f
    6113:	83 c8 80             	or     eax,0xffffff80
    6116:	88 86 1d 02 00 00    	mov    BYTE PTR [esi+0x21d],al
    611c:	c1 ea 10             	shr    edx,0x10
    611f:	66 89 96 1e 02 00 00 	mov    WORD PTR [esi+0x21e],dx
    6126:	8b 83 98 ff ff ff    	mov    eax,DWORD PTR [ebx-0x68]
    612c:	66 89 86 20 02 00 00 	mov    WORD PTR [esi+0x220],ax
    6133:	c7 86 22 02 00 00 08 	mov    DWORD PTR [esi+0x222],0x8e000008
    613a:	00 00 8e 
    613d:	c1 e8 10             	shr    eax,0x10
    6140:	66 89 86 26 02 00 00 	mov    WORD PTR [esi+0x226],ax
    6147:	8b 83 80 fe ff ff    	mov    eax,DWORD PTR [ebx-0x180]
    614d:	66 89 86 28 02 00 00 	mov    WORD PTR [esi+0x228],ax
    6154:	c7 86 2a 02 00 00 08 	mov    DWORD PTR [esi+0x22a],0x8e000008
    615b:	00 00 8e 
    615e:	c1 e8 10             	shr    eax,0x10
    6161:	66 89 86 2e 02 00 00 	mov    WORD PTR [esi+0x22e],ax
    6168:	8b 83 a8 ff ff ff    	mov    eax,DWORD PTR [ebx-0x58]
    616e:	66 89 86 30 02 00 00 	mov    WORD PTR [esi+0x230],ax
    6175:	c7 86 32 02 00 00 08 	mov    DWORD PTR [esi+0x232],0x8e000008
    617c:	00 00 8e 
    617f:	c1 e8 10             	shr    eax,0x10
    6182:	66 89 86 36 02 00 00 	mov    WORD PTR [esi+0x236],ax
    6189:	8b 83 38 fe ff ff    	mov    eax,DWORD PTR [ebx-0x1c8]
    618f:	66 89 86 38 02 00 00 	mov    WORD PTR [esi+0x238],ax
    6196:	c7 86 3a 02 00 00 08 	mov    DWORD PTR [esi+0x23a],0x8e000008
    619d:	00 00 8e 
    61a0:	c1 e8 10             	shr    eax,0x10
    61a3:	66 89 86 3e 02 00 00 	mov    WORD PTR [esi+0x23e],ax
    61aa:	8b 83 b8 fe ff ff    	mov    eax,DWORD PTR [ebx-0x148]
    61b0:	66 89 86 40 02 00 00 	mov    WORD PTR [esi+0x240],ax
    61b7:	c7 86 42 02 00 00 08 	mov    DWORD PTR [esi+0x242],0x8e000008
    61be:	00 00 8e 
    61c1:	c1 e8 10             	shr    eax,0x10
    61c4:	66 89 86 46 02 00 00 	mov    WORD PTR [esi+0x246],ax
    61cb:	8b 83 c0 ff ff ff    	mov    eax,DWORD PTR [ebx-0x40]
    61d1:	66 89 86 48 02 00 00 	mov    WORD PTR [esi+0x248],ax
    61d8:	c7 86 4a 02 00 00 08 	mov    DWORD PTR [esi+0x24a],0x8e000008
    61df:	00 00 8e 
    61e2:	c1 e8 10             	shr    eax,0x10
    61e5:	66 89 86 4e 02 00 00 	mov    WORD PTR [esi+0x24e],ax
    61ec:	8b 83 5c fe ff ff    	mov    eax,DWORD PTR [ebx-0x1a4]
    61f2:	66 89 86 50 02 00 00 	mov    WORD PTR [esi+0x250],ax
    61f9:	c7 86 52 02 00 00 08 	mov    DWORD PTR [esi+0x252],0x8e000008
    6200:	00 00 8e 
    6203:	c1 e8 10             	shr    eax,0x10
    6206:	66 89 86 56 02 00 00 	mov    WORD PTR [esi+0x256],ax
    620d:	8b 83 c8 fe ff ff    	mov    eax,DWORD PTR [ebx-0x138]
    6213:	66 89 86 58 02 00 00 	mov    WORD PTR [esi+0x258],ax
    621a:	c7 86 5a 02 00 00 08 	mov    DWORD PTR [esi+0x25a],0x8e000008
    6221:	00 00 8e 
    6224:	c1 e8 10             	shr    eax,0x10
    6227:	66 89 86 5e 02 00 00 	mov    WORD PTR [esi+0x25e],ax
    622e:	8b 83 30 ff ff ff    	mov    eax,DWORD PTR [ebx-0xd0]
    6234:	66 89 86 60 02 00 00 	mov    WORD PTR [esi+0x260],ax
    623b:	c7 86 62 02 00 00 08 	mov    DWORD PTR [esi+0x262],0x8e000008
    6242:	00 00 8e 
    6245:	c1 e8 10             	shr    eax,0x10
    6248:	66 89 86 66 02 00 00 	mov    WORD PTR [esi+0x266],ax
    624f:	8b 83 f0 fd ff ff    	mov    eax,DWORD PTR [ebx-0x210]
    6255:	66 89 86 68 02 00 00 	mov    WORD PTR [esi+0x268],ax
    625c:	c7 86 6a 02 00 00 08 	mov    DWORD PTR [esi+0x26a],0x8e000008
    6263:	00 00 8e 
    6266:	c1 e8 10             	shr    eax,0x10
    6269:	66 89 86 6e 02 00 00 	mov    WORD PTR [esi+0x26e],ax
    6270:	8b 83 60 fe ff ff    	mov    eax,DWORD PTR [ebx-0x1a0]
    6276:	66 89 86 70 02 00 00 	mov    WORD PTR [esi+0x270],ax
    627d:	66 c7 86 72 02 00 00 	mov    WORD PTR [esi+0x272],0x8
    6284:	08 00 
    6286:	66 c7 86 74 02 00 00 	mov    WORD PTR [esi+0x274],0x8e00
    628d:	00 8e 
    628f:	c1 e8 10             	shr    eax,0x10
    6292:	66 89 86 76 02 00 00 	mov    WORD PTR [esi+0x276],ax
    6299:	8b 83 88 fd ff ff    	mov    eax,DWORD PTR [ebx-0x278]
    629f:	66 89 86 78 02 00 00 	mov    WORD PTR [esi+0x278],ax
    62a6:	c7 86 7a 02 00 00 08 	mov    DWORD PTR [esi+0x27a],0x8e000008
    62ad:	00 00 8e 
    62b0:	c1 e8 10             	shr    eax,0x10
    62b3:	66 89 86 7e 02 00 00 	mov    WORD PTR [esi+0x27e],ax
    62ba:	8b 83 20 fe ff ff    	mov    eax,DWORD PTR [ebx-0x1e0]
    62c0:	66 89 86 80 02 00 00 	mov    WORD PTR [esi+0x280],ax
    62c7:	c7 86 82 02 00 00 08 	mov    DWORD PTR [esi+0x282],0x8e000008
    62ce:	00 00 8e 
    62d1:	c1 e8 10             	shr    eax,0x10
    62d4:	66 89 86 86 02 00 00 	mov    WORD PTR [esi+0x286],ax
    62db:	8b 83 8c fe ff ff    	mov    eax,DWORD PTR [ebx-0x174]
    62e1:	66 89 86 88 02 00 00 	mov    WORD PTR [esi+0x288],ax
    62e8:	c7 86 8a 02 00 00 08 	mov    DWORD PTR [esi+0x28a],0x8e000008
    62ef:	00 00 8e 
    62f2:	c1 e8 10             	shr    eax,0x10
    62f5:	66 89 86 8e 02 00 00 	mov    WORD PTR [esi+0x28e],ax
    62fc:	8b 83 e0 ff ff ff    	mov    eax,DWORD PTR [ebx-0x20]
    6302:	66 89 86 90 02 00 00 	mov    WORD PTR [esi+0x290],ax
    6309:	c7 86 92 02 00 00 08 	mov    DWORD PTR [esi+0x292],0x8e000008
    6310:	00 00 8e 
    6313:	c1 e8 10             	shr    eax,0x10
    6316:	66 89 86 96 02 00 00 	mov    WORD PTR [esi+0x296],ax
    631d:	8b 83 90 fd ff ff    	mov    eax,DWORD PTR [ebx-0x270]
    6323:	66 89 86 98 02 00 00 	mov    WORD PTR [esi+0x298],ax
    632a:	c7 86 9a 02 00 00 08 	mov    DWORD PTR [esi+0x29a],0x8e000008
    6331:	00 00 8e 
    6334:	c1 e8 10             	shr    eax,0x10
    6337:	66 89 86 9e 02 00 00 	mov    WORD PTR [esi+0x29e],ax
    633e:	8b 83 08 fe ff ff    	mov    eax,DWORD PTR [ebx-0x1f8]
    6344:	66 89 86 a0 02 00 00 	mov    WORD PTR [esi+0x2a0],ax
    634b:	c7 86 a2 02 00 00 08 	mov    DWORD PTR [esi+0x2a2],0x8e000008
    6352:	00 00 8e 
    6355:	c1 e8 10             	shr    eax,0x10
    6358:	66 89 86 a6 02 00 00 	mov    WORD PTR [esi+0x2a6],ax
    635f:	8b 83 64 ff ff ff    	mov    eax,DWORD PTR [ebx-0x9c]
    6365:	66 89 86 a8 02 00 00 	mov    WORD PTR [esi+0x2a8],ax
    636c:	c7 86 aa 02 00 00 08 	mov    DWORD PTR [esi+0x2aa],0x8e000008
    6373:	00 00 8e 
    6376:	c1 e8 10             	shr    eax,0x10
    6379:	66 89 86 ae 02 00 00 	mov    WORD PTR [esi+0x2ae],ax
    6380:	8b 83 f8 ff ff ff    	mov    eax,DWORD PTR [ebx-0x8]
    6386:	66 89 86 b0 02 00 00 	mov    WORD PTR [esi+0x2b0],ax
    638d:	c7 86 b2 02 00 00 08 	mov    DWORD PTR [esi+0x2b2],0x8e000008
    6394:	00 00 8e 
    6397:	c1 e8 10             	shr    eax,0x10
    639a:	66 89 86 b6 02 00 00 	mov    WORD PTR [esi+0x2b6],ax
    63a1:	8b 83 74 fd ff ff    	mov    eax,DWORD PTR [ebx-0x28c]
    63a7:	66 89 86 b8 02 00 00 	mov    WORD PTR [esi+0x2b8],ax
    63ae:	c7 86 ba 02 00 00 08 	mov    DWORD PTR [esi+0x2ba],0x8e000008
    63b5:	00 00 8e 
    63b8:	c1 e8 10             	shr    eax,0x10
    63bb:	66 89 86 be 02 00 00 	mov    WORD PTR [esi+0x2be],ax
    63c2:	8b 93 84 ff ff ff    	mov    edx,DWORD PTR [ebx-0x7c]
    63c8:	66 89 96 c0 02 00 00 	mov    WORD PTR [esi+0x2c0],dx
    63cf:	66 c7 86 c2 02 00 00 	mov    WORD PTR [esi+0x2c2],0x8
    63d6:	08 00 
    63d8:	c6 86 c4 02 00 00 00 	mov    BYTE PTR [esi+0x2c4],0x0
    63df:	8a 86 c5 02 00 00    	mov    al,BYTE PTR [esi+0x2c5]
    63e5:	83 e0 f0             	and    eax,0xfffffff0
    63e8:	83 c8 0e             	or     eax,0xe
    63eb:	83 e0 8f             	and    eax,0xffffff8f
    63ee:	83 c8 80             	or     eax,0xffffff80
    63f1:	88 86 c5 02 00 00    	mov    BYTE PTR [esi+0x2c5],al
    63f7:	c1 ea 10             	shr    edx,0x10
    63fa:	66 89 96 c6 02 00 00 	mov    WORD PTR [esi+0x2c6],dx
    6401:	8b 83 ec fc ff ff    	mov    eax,DWORD PTR [ebx-0x314]
    6407:	66 89 86 c8 02 00 00 	mov    WORD PTR [esi+0x2c8],ax
    640e:	c7 86 ca 02 00 00 08 	mov    DWORD PTR [esi+0x2ca],0x8e000008
    6415:	00 00 8e 
    6418:	c1 e8 10             	shr    eax,0x10
    641b:	66 89 86 ce 02 00 00 	mov    WORD PTR [esi+0x2ce],ax
    6422:	8b 83 f8 fe ff ff    	mov    eax,DWORD PTR [ebx-0x108]
    6428:	66 89 86 d0 02 00 00 	mov    WORD PTR [esi+0x2d0],ax
    642f:	c7 86 d2 02 00 00 08 	mov    DWORD PTR [esi+0x2d2],0x8e000008
    6436:	00 00 8e 
    6439:	c1 e8 10             	shr    eax,0x10
    643c:	66 89 86 d6 02 00 00 	mov    WORD PTR [esi+0x2d6],ax
    6443:	8b 83 70 fd ff ff    	mov    eax,DWORD PTR [ebx-0x290]
    6449:	66 89 86 d8 02 00 00 	mov    WORD PTR [esi+0x2d8],ax
    6450:	c7 86 da 02 00 00 08 	mov    DWORD PTR [esi+0x2da],0x8e000008
    6457:	00 00 8e 
    645a:	c1 e8 10             	shr    eax,0x10
    645d:	66 89 86 de 02 00 00 	mov    WORD PTR [esi+0x2de],ax
    6464:	8b 83 c8 fd ff ff    	mov    eax,DWORD PTR [ebx-0x238]
    646a:	66 89 86 e0 02 00 00 	mov    WORD PTR [esi+0x2e0],ax
    6471:	c7 86 e2 02 00 00 08 	mov    DWORD PTR [esi+0x2e2],0x8e000008
    6478:	00 00 8e 
    647b:	c1 e8 10             	shr    eax,0x10
    647e:	66 89 86 e6 02 00 00 	mov    WORD PTR [esi+0x2e6],ax
    6485:	8b 83 3c fe ff ff    	mov    eax,DWORD PTR [ebx-0x1c4]
    648b:	66 89 86 e8 02 00 00 	mov    WORD PTR [esi+0x2e8],ax
    6492:	c7 86 ea 02 00 00 08 	mov    DWORD PTR [esi+0x2ea],0x8e000008
    6499:	00 00 8e 
    649c:	c1 e8 10             	shr    eax,0x10
    649f:	66 89 86 ee 02 00 00 	mov    WORD PTR [esi+0x2ee],ax
    64a6:	8b 83 78 fd ff ff    	mov    eax,DWORD PTR [ebx-0x288]
    64ac:	66 89 86 f0 02 00 00 	mov    WORD PTR [esi+0x2f0],ax
    64b3:	c7 86 f2 02 00 00 08 	mov    DWORD PTR [esi+0x2f2],0x8e000008
    64ba:	00 00 8e 
    64bd:	c1 e8 10             	shr    eax,0x10
    64c0:	66 89 86 f6 02 00 00 	mov    WORD PTR [esi+0x2f6],ax
    64c7:	8b 83 1c ff ff ff    	mov    eax,DWORD PTR [ebx-0xe4]
    64cd:	66 89 86 f8 02 00 00 	mov    WORD PTR [esi+0x2f8],ax
    64d4:	c7 86 fa 02 00 00 08 	mov    DWORD PTR [esi+0x2fa],0x8e000008
    64db:	00 00 8e 
    64de:	c1 e8 10             	shr    eax,0x10
    64e1:	66 89 86 fe 02 00 00 	mov    WORD PTR [esi+0x2fe],ax
    64e8:	8b 83 40 fe ff ff    	mov    eax,DWORD PTR [ebx-0x1c0]
    64ee:	66 89 86 00 03 00 00 	mov    WORD PTR [esi+0x300],ax
    64f5:	c7 86 02 03 00 00 08 	mov    DWORD PTR [esi+0x302],0x8e000008
    64fc:	00 00 8e 
    64ff:	c1 e8 10             	shr    eax,0x10
    6502:	66 89 86 06 03 00 00 	mov    WORD PTR [esi+0x306],ax
    6509:	8b 83 bc fe ff ff    	mov    eax,DWORD PTR [ebx-0x144]
    650f:	66 89 86 08 03 00 00 	mov    WORD PTR [esi+0x308],ax
    6516:	c7 86 0a 03 00 00 08 	mov    DWORD PTR [esi+0x30a],0x8e000008
    651d:	00 00 8e 
    6520:	c1 e8 10             	shr    eax,0x10
    6523:	66 89 86 0e 03 00 00 	mov    WORD PTR [esi+0x30e],ax
    652a:	8b 83 ac ff ff ff    	mov    eax,DWORD PTR [ebx-0x54]
    6530:	66 89 86 10 03 00 00 	mov    WORD PTR [esi+0x310],ax
    6537:	c7 86 12 03 00 00 08 	mov    DWORD PTR [esi+0x312],0x8e000008
    653e:	00 00 8e 
    6541:	c1 e8 10             	shr    eax,0x10
    6544:	66 89 86 16 03 00 00 	mov    WORD PTR [esi+0x316],ax
    654b:	8b 93 54 fd ff ff    	mov    edx,DWORD PTR [ebx-0x2ac]
    6551:	66 89 96 18 03 00 00 	mov    WORD PTR [esi+0x318],dx
    6558:	66 c7 86 1a 03 00 00 	mov    WORD PTR [esi+0x31a],0x8
    655f:	08 00 
    6561:	c6 86 1c 03 00 00 00 	mov    BYTE PTR [esi+0x31c],0x0
    6568:	8a 86 1d 03 00 00    	mov    al,BYTE PTR [esi+0x31d]
    656e:	83 e0 f0             	and    eax,0xfffffff0
    6571:	83 c8 0e             	or     eax,0xe
    6574:	83 e0 8f             	and    eax,0xffffff8f
    6577:	83 c8 80             	or     eax,0xffffff80
    657a:	88 86 1d 03 00 00    	mov    BYTE PTR [esi+0x31d],al
    6580:	c1 ea 10             	shr    edx,0x10
    6583:	66 89 96 1e 03 00 00 	mov    WORD PTR [esi+0x31e],dx
    658a:	8b 83 8c fd ff ff    	mov    eax,DWORD PTR [ebx-0x274]
    6590:	66 89 86 20 03 00 00 	mov    WORD PTR [esi+0x320],ax
    6597:	c7 86 22 03 00 00 08 	mov    DWORD PTR [esi+0x322],0x8e000008
    659e:	00 00 8e 
    65a1:	c1 e8 10             	shr    eax,0x10
    65a4:	66 89 86 26 03 00 00 	mov    WORD PTR [esi+0x326],ax
    65ab:	8b 83 c4 fe ff ff    	mov    eax,DWORD PTR [ebx-0x13c]
    65b1:	66 89 86 28 03 00 00 	mov    WORD PTR [esi+0x328],ax
    65b8:	c7 86 2a 03 00 00 08 	mov    DWORD PTR [esi+0x32a],0x8e000008
    65bf:	00 00 8e 
    65c2:	c1 e8 10             	shr    eax,0x10
    65c5:	66 89 86 2e 03 00 00 	mov    WORD PTR [esi+0x32e],ax
    65cc:	8b 83 c4 ff ff ff    	mov    eax,DWORD PTR [ebx-0x3c]
    65d2:	66 89 86 30 03 00 00 	mov    WORD PTR [esi+0x330],ax
    65d9:	c7 86 32 03 00 00 08 	mov    DWORD PTR [esi+0x332],0x8e000008
    65e0:	00 00 8e 
    65e3:	c1 e8 10             	shr    eax,0x10
    65e6:	66 89 86 36 03 00 00 	mov    WORD PTR [esi+0x336],ax
    65ed:	8b 83 28 fe ff ff    	mov    eax,DWORD PTR [ebx-0x1d8]
    65f3:	66 89 86 38 03 00 00 	mov    WORD PTR [esi+0x338],ax
    65fa:	c7 86 3a 03 00 00 08 	mov    DWORD PTR [esi+0x33a],0x8e000008
    6601:	00 00 8e 
    6604:	c1 e8 10             	shr    eax,0x10
    6607:	66 89 86 3e 03 00 00 	mov    WORD PTR [esi+0x33e],ax
    660e:	8b 83 18 ff ff ff    	mov    eax,DWORD PTR [ebx-0xe8]
    6614:	66 89 86 40 03 00 00 	mov    WORD PTR [esi+0x340],ax
    661b:	c7 86 42 03 00 00 08 	mov    DWORD PTR [esi+0x342],0x8e000008
    6622:	00 00 8e 
    6625:	c1 e8 10             	shr    eax,0x10
    6628:	66 89 86 46 03 00 00 	mov    WORD PTR [esi+0x346],ax
    662f:	8b 83 38 fd ff ff    	mov    eax,DWORD PTR [ebx-0x2c8]
    6635:	66 89 86 48 03 00 00 	mov    WORD PTR [esi+0x348],ax
    663c:	c7 86 4a 03 00 00 08 	mov    DWORD PTR [esi+0x34a],0x8e000008
    6643:	00 00 8e 
    6646:	c1 e8 10             	shr    eax,0x10
    6649:	66 89 86 4e 03 00 00 	mov    WORD PTR [esi+0x34e],ax
    6650:	8b 83 64 fe ff ff    	mov    eax,DWORD PTR [ebx-0x19c]
    6656:	66 89 86 50 03 00 00 	mov    WORD PTR [esi+0x350],ax
    665d:	c7 86 52 03 00 00 08 	mov    DWORD PTR [esi+0x352],0x8e000008
    6664:	00 00 8e 
    6667:	c1 e8 10             	shr    eax,0x10
    666a:	66 89 86 56 03 00 00 	mov    WORD PTR [esi+0x356],ax
    6671:	8b 83 78 ff ff ff    	mov    eax,DWORD PTR [ebx-0x88]
    6677:	66 89 86 58 03 00 00 	mov    WORD PTR [esi+0x358],ax
    667e:	c7 86 5a 03 00 00 08 	mov    DWORD PTR [esi+0x35a],0x8e000008
    6685:	00 00 8e 
    6688:	c1 e8 10             	shr    eax,0x10
    668b:	66 89 86 5e 03 00 00 	mov    WORD PTR [esi+0x35e],ax
    6692:	8b 83 98 fd ff ff    	mov    eax,DWORD PTR [ebx-0x268]
    6698:	66 89 86 60 03 00 00 	mov    WORD PTR [esi+0x360],ax
    669f:	c7 86 62 03 00 00 08 	mov    DWORD PTR [esi+0x362],0x8e000008
    66a6:	00 00 8e 
    66a9:	c1 e8 10             	shr    eax,0x10
    66ac:	66 89 86 66 03 00 00 	mov    WORD PTR [esi+0x366],ax
    66b3:	8b 83 34 fd ff ff    	mov    eax,DWORD PTR [ebx-0x2cc]
    66b9:	66 89 86 68 03 00 00 	mov    WORD PTR [esi+0x368],ax
    66c0:	c7 86 6a 03 00 00 08 	mov    DWORD PTR [esi+0x36a],0x8e000008
    66c7:	00 00 8e 
    66ca:	c1 e8 10             	shr    eax,0x10
    66cd:	66 89 86 6e 03 00 00 	mov    WORD PTR [esi+0x36e],ax
    66d4:	8b 83 48 fe ff ff    	mov    eax,DWORD PTR [ebx-0x1b8]
    66da:	66 89 86 70 03 00 00 	mov    WORD PTR [esi+0x370],ax
    66e1:	66 c7 86 72 03 00 00 	mov    WORD PTR [esi+0x372],0x8
    66e8:	08 00 
    66ea:	66 c7 86 74 03 00 00 	mov    WORD PTR [esi+0x374],0x8e00
    66f1:	00 8e 
    66f3:	c1 e8 10             	shr    eax,0x10
    66f6:	66 89 86 76 03 00 00 	mov    WORD PTR [esi+0x376],ax
    66fd:	8b 83 34 ff ff ff    	mov    eax,DWORD PTR [ebx-0xcc]
    6703:	66 89 86 78 03 00 00 	mov    WORD PTR [esi+0x378],ax
    670a:	c7 86 7a 03 00 00 08 	mov    DWORD PTR [esi+0x37a],0x8e000008
    6711:	00 00 8e 
    6714:	c1 e8 10             	shr    eax,0x10
    6717:	66 89 86 7e 03 00 00 	mov    WORD PTR [esi+0x37e],ax
    671e:	8b 83 f4 ff ff ff    	mov    eax,DWORD PTR [ebx-0xc]
    6724:	66 89 86 80 03 00 00 	mov    WORD PTR [esi+0x380],ax
    672b:	c7 86 82 03 00 00 08 	mov    DWORD PTR [esi+0x382],0x8e000008
    6732:	00 00 8e 
    6735:	c1 e8 10             	shr    eax,0x10
    6738:	66 89 86 86 03 00 00 	mov    WORD PTR [esi+0x386],ax
    673f:	8b 83 1c fe ff ff    	mov    eax,DWORD PTR [ebx-0x1e4]
    6745:	66 89 86 88 03 00 00 	mov    WORD PTR [esi+0x388],ax
    674c:	c7 86 8a 03 00 00 08 	mov    DWORD PTR [esi+0x38a],0x8e000008
    6753:	00 00 8e 
    6756:	c1 e8 10             	shr    eax,0x10
    6759:	66 89 86 8e 03 00 00 	mov    WORD PTR [esi+0x38e],ax
    6760:	8b 83 48 ff ff ff    	mov    eax,DWORD PTR [ebx-0xb8]
    6766:	66 89 86 90 03 00 00 	mov    WORD PTR [esi+0x390],ax
    676d:	c7 86 92 03 00 00 08 	mov    DWORD PTR [esi+0x392],0x8e000008
    6774:	00 00 8e 
    6777:	c1 e8 10             	shr    eax,0x10
    677a:	66 89 86 96 03 00 00 	mov    WORD PTR [esi+0x396],ax
    6781:	8b 83 44 fd ff ff    	mov    eax,DWORD PTR [ebx-0x2bc]
    6787:	66 89 86 98 03 00 00 	mov    WORD PTR [esi+0x398],ax
    678e:	c7 86 9a 03 00 00 08 	mov    DWORD PTR [esi+0x39a],0x8e000008
    6795:	00 00 8e 
    6798:	c1 e8 10             	shr    eax,0x10
    679b:	66 89 86 9e 03 00 00 	mov    WORD PTR [esi+0x39e],ax
    67a2:	8b 83 00 ff ff ff    	mov    eax,DWORD PTR [ebx-0x100]
    67a8:	66 89 86 a0 03 00 00 	mov    WORD PTR [esi+0x3a0],ax
    67af:	c7 86 a2 03 00 00 08 	mov    DWORD PTR [esi+0x3a2],0x8e000008
    67b6:	00 00 8e 
    67b9:	c1 e8 10             	shr    eax,0x10
    67bc:	66 89 86 a6 03 00 00 	mov    WORD PTR [esi+0x3a6],ax
    67c3:	8b 83 f0 fc ff ff    	mov    eax,DWORD PTR [ebx-0x310]
    67c9:	66 89 86 a8 03 00 00 	mov    WORD PTR [esi+0x3a8],ax
    67d0:	c7 86 aa 03 00 00 08 	mov    DWORD PTR [esi+0x3aa],0x8e000008
    67d7:	00 00 8e 
    67da:	c1 e8 10             	shr    eax,0x10
    67dd:	66 89 86 ae 03 00 00 	mov    WORD PTR [esi+0x3ae],ax
    67e4:	8b 83 a0 fd ff ff    	mov    eax,DWORD PTR [ebx-0x260]
    67ea:	66 89 86 c0 03 00 00 	mov    WORD PTR [esi+0x3c0],ax
    67f1:	c7 86 c2 03 00 00 08 	mov    DWORD PTR [esi+0x3c2],0x8e000008
    67f8:	00 00 8e 
    67fb:	c1 e8 10             	shr    eax,0x10
    67fe:	66 89 86 c6 03 00 00 	mov    WORD PTR [esi+0x3c6],ax
    6805:	8b 83 9c fe ff ff    	mov    eax,DWORD PTR [ebx-0x164]
    680b:	66 89 86 c8 03 00 00 	mov    WORD PTR [esi+0x3c8],ax
    6812:	c7 86 ca 03 00 00 08 	mov    DWORD PTR [esi+0x3ca],0x8e000008
    6819:	00 00 8e 
    681c:	c1 e8 10             	shr    eax,0x10
    681f:	66 89 86 ce 03 00 00 	mov    WORD PTR [esi+0x3ce],ax
    6826:	8b 93 b4 ff ff ff    	mov    edx,DWORD PTR [ebx-0x4c]
    682c:	66 89 96 d0 03 00 00 	mov    WORD PTR [esi+0x3d0],dx
    6833:	66 c7 86 d2 03 00 00 	mov    WORD PTR [esi+0x3d2],0x8
    683a:	08 00 
    683c:	c6 86 d4 03 00 00 00 	mov    BYTE PTR [esi+0x3d4],0x0
    6843:	8a 86 d5 03 00 00    	mov    al,BYTE PTR [esi+0x3d5]
    6849:	83 e0 f0             	and    eax,0xfffffff0
    684c:	83 c8 0e             	or     eax,0xe
    684f:	83 e0 8f             	and    eax,0xffffff8f
    6852:	83 c8 80             	or     eax,0xffffff80
    6855:	88 86 d5 03 00 00    	mov    BYTE PTR [esi+0x3d5],al
    685b:	c1 ea 10             	shr    edx,0x10
    685e:	66 89 96 d6 03 00 00 	mov    WORD PTR [esi+0x3d6],dx
    6865:	8b 83 d4 fd ff ff    	mov    eax,DWORD PTR [ebx-0x22c]
    686b:	66 89 86 d8 03 00 00 	mov    WORD PTR [esi+0x3d8],ax
    6872:	c7 86 da 03 00 00 08 	mov    DWORD PTR [esi+0x3da],0x8e000008
    6879:	00 00 8e 
    687c:	c1 e8 10             	shr    eax,0x10
    687f:	66 89 86 de 03 00 00 	mov    WORD PTR [esi+0x3de],ax
    6886:	8b 83 08 ff ff ff    	mov    eax,DWORD PTR [ebx-0xf8]
    688c:	66 89 86 e0 03 00 00 	mov    WORD PTR [esi+0x3e0],ax
    6893:	c7 86 e2 03 00 00 08 	mov    DWORD PTR [esi+0x3e2],0x8e000008
    689a:	00 00 8e 
    689d:	c1 e8 10             	shr    eax,0x10
    68a0:	66 89 86 e6 03 00 00 	mov    WORD PTR [esi+0x3e6],ax
    68a7:	8b 83 f8 fc ff ff    	mov    eax,DWORD PTR [ebx-0x308]
    68ad:	66 89 86 e8 03 00 00 	mov    WORD PTR [esi+0x3e8],ax
    68b4:	c7 86 ea 03 00 00 08 	mov    DWORD PTR [esi+0x3ea],0x8e000008
    68bb:	00 00 8e 
    68be:	c1 e8 10             	shr    eax,0x10
    68c1:	66 89 86 ee 03 00 00 	mov    WORD PTR [esi+0x3ee],ax
    68c8:	8b 83 e8 fd ff ff    	mov    eax,DWORD PTR [ebx-0x218]
    68ce:	66 89 86 f0 03 00 00 	mov    WORD PTR [esi+0x3f0],ax
    68d5:	c7 86 f2 03 00 00 08 	mov    DWORD PTR [esi+0x3f2],0x8e000008
    68dc:	00 00 8e 
    68df:	c1 e8 10             	shr    eax,0x10
    68e2:	66 89 86 f6 03 00 00 	mov    WORD PTR [esi+0x3f6],ax
    68e9:	8b 83 94 ff ff ff    	mov    eax,DWORD PTR [ebx-0x6c]
    68ef:	66 89 86 f8 03 00 00 	mov    WORD PTR [esi+0x3f8],ax
    68f6:	c7 86 fa 03 00 00 08 	mov    DWORD PTR [esi+0x3fa],0x8e000008
    68fd:	00 00 8e 
    6900:	c1 e8 10             	shr    eax,0x10
    6903:	66 89 86 fe 03 00 00 	mov    WORD PTR [esi+0x3fe],ax
    690a:	8b 83 04 fd ff ff    	mov    eax,DWORD PTR [ebx-0x2fc]
    6910:	66 89 86 00 04 00 00 	mov    WORD PTR [esi+0x400],ax
    6917:	c7 86 02 04 00 00 08 	mov    DWORD PTR [esi+0x402],0x8e000008
    691e:	00 00 8e 
    6921:	c1 e8 10             	shr    eax,0x10
    6924:	66 89 86 06 04 00 00 	mov    WORD PTR [esi+0x406],ax
    692b:	8b 83 e8 fe ff ff    	mov    eax,DWORD PTR [ebx-0x118]
    6931:	66 89 86 08 04 00 00 	mov    WORD PTR [esi+0x408],ax
    6938:	c7 86 0a 04 00 00 08 	mov    DWORD PTR [esi+0x40a],0x8e000008
    693f:	00 00 8e 
    6942:	c1 e8 10             	shr    eax,0x10
    6945:	66 89 86 0e 04 00 00 	mov    WORD PTR [esi+0x40e],ax
    694c:	8b 83 bc ff ff ff    	mov    eax,DWORD PTR [ebx-0x44]
    6952:	66 89 86 10 04 00 00 	mov    WORD PTR [esi+0x410],ax
    6959:	c7 86 12 04 00 00 08 	mov    DWORD PTR [esi+0x412],0x8e000008
    6960:	00 00 8e 
    6963:	c1 e8 10             	shr    eax,0x10
    6966:	66 89 86 16 04 00 00 	mov    WORD PTR [esi+0x416],ax
    696d:	8b 83 94 fe ff ff    	mov    eax,DWORD PTR [ebx-0x16c]
    6973:	66 89 86 18 04 00 00 	mov    WORD PTR [esi+0x418],ax
    697a:	c7 86 1a 04 00 00 08 	mov    DWORD PTR [esi+0x41a],0x8e000008
    6981:	00 00 8e 
    6984:	c1 e8 10             	shr    eax,0x10
    6987:	66 89 86 1e 04 00 00 	mov    WORD PTR [esi+0x41e],ax
    698e:	8b 83 70 ff ff ff    	mov    eax,DWORD PTR [ebx-0x90]
    6994:	66 89 86 20 04 00 00 	mov    WORD PTR [esi+0x420],ax
    699b:	c7 86 22 04 00 00 08 	mov    DWORD PTR [esi+0x422],0x8e000008
    69a2:	00 00 8e 
    69a5:	c1 e8 10             	shr    eax,0x10
    69a8:	66 89 86 26 04 00 00 	mov    WORD PTR [esi+0x426],ax
    69af:	8b 93 dc fd ff ff    	mov    edx,DWORD PTR [ebx-0x224]
    69b5:	66 89 96 28 04 00 00 	mov    WORD PTR [esi+0x428],dx
    69bc:	66 c7 86 2a 04 00 00 	mov    WORD PTR [esi+0x42a],0x8
    69c3:	08 00 
    69c5:	c6 86 2c 04 00 00 00 	mov    BYTE PTR [esi+0x42c],0x0
    69cc:	8a 86 2d 04 00 00    	mov    al,BYTE PTR [esi+0x42d]
    69d2:	83 e0 f0             	and    eax,0xfffffff0
    69d5:	83 c8 0e             	or     eax,0xe
    69d8:	83 e0 8f             	and    eax,0xffffff8f
    69db:	83 c8 80             	or     eax,0xffffff80
    69de:	88 86 2d 04 00 00    	mov    BYTE PTR [esi+0x42d],al
    69e4:	c1 ea 10             	shr    edx,0x10
    69e7:	66 89 96 2e 04 00 00 	mov    WORD PTR [esi+0x42e],dx
    69ee:	8b 83 c0 fe ff ff    	mov    eax,DWORD PTR [ebx-0x140]
    69f4:	66 89 86 30 04 00 00 	mov    WORD PTR [esi+0x430],ax
    69fb:	c7 86 32 04 00 00 08 	mov    DWORD PTR [esi+0x432],0x8e000008
    6a02:	00 00 8e 
    6a05:	c1 e8 10             	shr    eax,0x10
    6a08:	66 89 86 36 04 00 00 	mov    WORD PTR [esi+0x436],ax
    6a0f:	8b 83 10 ff ff ff    	mov    eax,DWORD PTR [ebx-0xf0]
    6a15:	66 89 86 38 04 00 00 	mov    WORD PTR [esi+0x438],ax
    6a1c:	c7 86 3a 04 00 00 08 	mov    DWORD PTR [esi+0x43a],0x8e000008
    6a23:	00 00 8e 
    6a26:	c1 e8 10             	shr    eax,0x10
    6a29:	66 89 86 3e 04 00 00 	mov    WORD PTR [esi+0x43e],ax
    6a30:	8b 83 fc fd ff ff    	mov    eax,DWORD PTR [ebx-0x204]
    6a36:	66 89 86 40 04 00 00 	mov    WORD PTR [esi+0x440],ax
    6a3d:	c7 86 42 04 00 00 08 	mov    DWORD PTR [esi+0x442],0x8e000008
    6a44:	00 00 8e 
    6a47:	c1 e8 10             	shr    eax,0x10
    6a4a:	66 89 86 46 04 00 00 	mov    WORD PTR [esi+0x446],ax
    6a51:	8b 83 70 fe ff ff    	mov    eax,DWORD PTR [ebx-0x190]
    6a57:	66 89 86 48 04 00 00 	mov    WORD PTR [esi+0x448],ax
    6a5e:	c7 86 4a 04 00 00 08 	mov    DWORD PTR [esi+0x44a],0x8e000008
    6a65:	00 00 8e 
    6a68:	c1 e8 10             	shr    eax,0x10
    6a6b:	66 89 86 4e 04 00 00 	mov    WORD PTR [esi+0x44e],ax
    6a72:	8b 83 1c fd ff ff    	mov    eax,DWORD PTR [ebx-0x2e4]
    6a78:	66 89 86 50 04 00 00 	mov    WORD PTR [esi+0x450],ax
    6a7f:	c7 86 52 04 00 00 08 	mov    DWORD PTR [esi+0x452],0x8e000008
    6a86:	00 00 8e 
    6a89:	c1 e8 10             	shr    eax,0x10
    6a8c:	66 89 86 56 04 00 00 	mov    WORD PTR [esi+0x456],ax
    6a93:	8b 83 24 fe ff ff    	mov    eax,DWORD PTR [ebx-0x1dc]
    6a99:	66 89 86 58 04 00 00 	mov    WORD PTR [esi+0x458],ax
    6aa0:	c7 86 5a 04 00 00 08 	mov    DWORD PTR [esi+0x45a],0x8e000008
    6aa7:	00 00 8e 
    6aaa:	c1 e8 10             	shr    eax,0x10
    6aad:	66 89 86 5e 04 00 00 	mov    WORD PTR [esi+0x45e],ax
    6ab4:	8b 83 cc fe ff ff    	mov    eax,DWORD PTR [ebx-0x134]
    6aba:	66 89 86 60 04 00 00 	mov    WORD PTR [esi+0x460],ax
    6ac1:	c7 86 62 04 00 00 08 	mov    DWORD PTR [esi+0x462],0x8e000008
    6ac8:	00 00 8e 
    6acb:	c1 e8 10             	shr    eax,0x10
    6ace:	66 89 86 66 04 00 00 	mov    WORD PTR [esi+0x466],ax
    6ad5:	8b 83 c8 ff ff ff    	mov    eax,DWORD PTR [ebx-0x38]
    6adb:	66 89 86 68 04 00 00 	mov    WORD PTR [esi+0x468],ax
    6ae2:	c7 86 6a 04 00 00 08 	mov    DWORD PTR [esi+0x46a],0x8e000008
    6ae9:	00 00 8e 
    6aec:	c1 e8 10             	shr    eax,0x10
    6aef:	66 89 86 6e 04 00 00 	mov    WORD PTR [esi+0x46e],ax
    6af6:	8b 83 2c fe ff ff    	mov    eax,DWORD PTR [ebx-0x1d4]
    6afc:	66 89 86 70 04 00 00 	mov    WORD PTR [esi+0x470],ax
    6b03:	c7 86 72 04 00 00 08 	mov    DWORD PTR [esi+0x472],0x8e000008
    6b0a:	00 00 8e 
    6b0d:	c1 e8 10             	shr    eax,0x10
    6b10:	66 89 86 76 04 00 00 	mov    WORD PTR [esi+0x476],ax
    6b17:	8b 83 14 ff ff ff    	mov    eax,DWORD PTR [ebx-0xec]
    6b1d:	66 89 86 78 04 00 00 	mov    WORD PTR [esi+0x478],ax
    6b24:	c7 86 7a 04 00 00 08 	mov    DWORD PTR [esi+0x47a],0x8e000008
    6b2b:	00 00 8e 
    6b2e:	c1 e8 10             	shr    eax,0x10
    6b31:	66 89 86 7e 04 00 00 	mov    WORD PTR [esi+0x47e],ax
    6b38:	8b 83 28 fd ff ff    	mov    eax,DWORD PTR [ebx-0x2d8]
    6b3e:	66 89 86 80 04 00 00 	mov    WORD PTR [esi+0x480],ax
    6b45:	66 c7 86 82 04 00 00 	mov    WORD PTR [esi+0x482],0x8
    6b4c:	08 00 
    6b4e:	66 c7 86 84 04 00 00 	mov    WORD PTR [esi+0x484],0x8e00
    6b55:	00 8e 
    6b57:	c1 e8 10             	shr    eax,0x10
    6b5a:	66 89 86 86 04 00 00 	mov    WORD PTR [esi+0x486],ax
    6b61:	8b 83 58 fe ff ff    	mov    eax,DWORD PTR [ebx-0x1a8]
    6b67:	66 89 86 88 04 00 00 	mov    WORD PTR [esi+0x488],ax
    6b6e:	c7 86 8a 04 00 00 08 	mov    DWORD PTR [esi+0x48a],0x8e000008
    6b75:	00 00 8e 
    6b78:	c1 e8 10             	shr    eax,0x10
    6b7b:	66 89 86 8e 04 00 00 	mov    WORD PTR [esi+0x48e],ax
    6b82:	8b 83 74 ff ff ff    	mov    eax,DWORD PTR [ebx-0x8c]
    6b88:	66 89 86 90 04 00 00 	mov    WORD PTR [esi+0x490],ax
    6b8f:	c7 86 92 04 00 00 08 	mov    DWORD PTR [esi+0x492],0x8e000008
    6b96:	00 00 8e 
    6b99:	c1 e8 10             	shr    eax,0x10
    6b9c:	66 89 86 96 04 00 00 	mov    WORD PTR [esi+0x496],ax
    6ba3:	8b 83 9c fd ff ff    	mov    eax,DWORD PTR [ebx-0x264]
    6ba9:	66 89 86 98 04 00 00 	mov    WORD PTR [esi+0x498],ax
    6bb0:	c7 86 9a 04 00 00 08 	mov    DWORD PTR [esi+0x49a],0x8e000008
    6bb7:	00 00 8e 
    6bba:	c1 e8 10             	shr    eax,0x10
    6bbd:	66 89 86 9e 04 00 00 	mov    WORD PTR [esi+0x49e],ax
    6bc4:	8b 83 3c fd ff ff    	mov    eax,DWORD PTR [ebx-0x2c4]
    6bca:	66 89 86 a0 04 00 00 	mov    WORD PTR [esi+0x4a0],ax
    6bd1:	c7 86 a2 04 00 00 08 	mov    DWORD PTR [esi+0x4a2],0x8e000008
    6bd8:	00 00 8e 
    6bdb:	c1 e8 10             	shr    eax,0x10
    6bde:	66 89 86 a6 04 00 00 	mov    WORD PTR [esi+0x4a6],ax
    6be5:	8b 83 28 ff ff ff    	mov    eax,DWORD PTR [ebx-0xd8]
    6beb:	66 89 86 a8 04 00 00 	mov    WORD PTR [esi+0x4a8],ax
    6bf2:	c7 86 aa 04 00 00 08 	mov    DWORD PTR [esi+0x4aa],0x8e000008
    6bf9:	00 00 8e 
    6bfc:	c1 e8 10             	shr    eax,0x10
    6bff:	66 89 86 ae 04 00 00 	mov    WORD PTR [esi+0x4ae],ax
    6c06:	8b 83 14 fe ff ff    	mov    eax,DWORD PTR [ebx-0x1ec]
    6c0c:	66 89 86 b0 04 00 00 	mov    WORD PTR [esi+0x4b0],ax
    6c13:	c7 86 b2 04 00 00 08 	mov    DWORD PTR [esi+0x4b2],0x8e000008
    6c1a:	00 00 8e 
    6c1d:	c1 e8 10             	shr    eax,0x10
    6c20:	66 89 86 b6 04 00 00 	mov    WORD PTR [esi+0x4b6],ax
    6c27:	8b 83 44 ff ff ff    	mov    eax,DWORD PTR [ebx-0xbc]
    6c2d:	66 89 86 b8 04 00 00 	mov    WORD PTR [esi+0x4b8],ax
    6c34:	c7 86 ba 04 00 00 08 	mov    DWORD PTR [esi+0x4ba],0x8e000008
    6c3b:	00 00 8e 
    6c3e:	c1 e8 10             	shr    eax,0x10
    6c41:	66 89 86 be 04 00 00 	mov    WORD PTR [esi+0x4be],ax
    6c48:	8b 83 40 fd ff ff    	mov    eax,DWORD PTR [ebx-0x2c0]
    6c4e:	66 89 86 c0 04 00 00 	mov    WORD PTR [esi+0x4c0],ax
    6c55:	c7 86 c2 04 00 00 08 	mov    DWORD PTR [esi+0x4c2],0x8e000008
    6c5c:	00 00 8e 
    6c5f:	c1 e8 10             	shr    eax,0x10
    6c62:	66 89 86 c6 04 00 00 	mov    WORD PTR [esi+0x4c6],ax
    6c69:	8b 83 fc fe ff ff    	mov    eax,DWORD PTR [ebx-0x104]
    6c6f:	66 89 86 c8 04 00 00 	mov    WORD PTR [esi+0x4c8],ax
    6c76:	c7 86 ca 04 00 00 08 	mov    DWORD PTR [esi+0x4ca],0x8e000008
    6c7d:	00 00 8e 
    6c80:	c1 e8 10             	shr    eax,0x10
    6c83:	66 89 86 ce 04 00 00 	mov    WORD PTR [esi+0x4ce],ax
    6c8a:	8b 93 fc ff ff ff    	mov    edx,DWORD PTR [ebx-0x4]
    6c90:	66 89 96 d0 04 00 00 	mov    WORD PTR [esi+0x4d0],dx
    6c97:	66 c7 86 d2 04 00 00 	mov    WORD PTR [esi+0x4d2],0x8
    6c9e:	08 00 
    6ca0:	c6 86 d4 04 00 00 00 	mov    BYTE PTR [esi+0x4d4],0x0
    6ca7:	8a 86 d5 04 00 00    	mov    al,BYTE PTR [esi+0x4d5]
    6cad:	83 e0 f0             	and    eax,0xfffffff0
    6cb0:	83 c8 0e             	or     eax,0xe
    6cb3:	83 e0 8f             	and    eax,0xffffff8f
    6cb6:	83 c8 80             	or     eax,0xffffff80
    6cb9:	88 86 d5 04 00 00    	mov    BYTE PTR [esi+0x4d5],al
    6cbf:	c1 ea 10             	shr    edx,0x10
    6cc2:	66 89 96 d6 04 00 00 	mov    WORD PTR [esi+0x4d6],dx
    6cc9:	8b 83 6c fe ff ff    	mov    eax,DWORD PTR [ebx-0x194]
    6ccf:	66 89 86 d8 04 00 00 	mov    WORD PTR [esi+0x4d8],ax
    6cd6:	c7 86 da 04 00 00 08 	mov    DWORD PTR [esi+0x4da],0x8e000008
    6cdd:	00 00 8e 
    6ce0:	c1 e8 10             	shr    eax,0x10
    6ce3:	66 89 86 de 04 00 00 	mov    WORD PTR [esi+0x4de],ax
    6cea:	8b 83 40 ff ff ff    	mov    eax,DWORD PTR [ebx-0xc0]
    6cf0:	66 89 86 e0 04 00 00 	mov    WORD PTR [esi+0x4e0],ax
    6cf7:	c7 86 e2 04 00 00 08 	mov    DWORD PTR [esi+0x4e2],0x8e000008
    6cfe:	00 00 8e 
    6d01:	c1 e8 10             	shr    eax,0x10
    6d04:	66 89 86 e6 04 00 00 	mov    WORD PTR [esi+0x4e6],ax
    6d0b:	8b 83 84 fe ff ff    	mov    eax,DWORD PTR [ebx-0x17c]
    6d11:	66 89 86 e8 04 00 00 	mov    WORD PTR [esi+0x4e8],ax
    6d18:	c7 86 ea 04 00 00 08 	mov    DWORD PTR [esi+0x4ea],0x8e000008
    6d1f:	00 00 8e 
    6d22:	c1 e8 10             	shr    eax,0x10
    6d25:	66 89 86 ee 04 00 00 	mov    WORD PTR [esi+0x4ee],ax
    6d2c:	8b 83 58 fd ff ff    	mov    eax,DWORD PTR [ebx-0x2a8]
    6d32:	66 89 86 f0 04 00 00 	mov    WORD PTR [esi+0x4f0],ax
    6d39:	c7 86 f2 04 00 00 08 	mov    DWORD PTR [esi+0x4f2],0x8e000008
    6d40:	00 00 8e 
    6d43:	c1 e8 10             	shr    eax,0x10
    6d46:	66 89 86 f6 04 00 00 	mov    WORD PTR [esi+0x4f6],ax
    6d4d:	8b 83 d0 fd ff ff    	mov    eax,DWORD PTR [ebx-0x230]
    6d53:	66 89 86 f8 04 00 00 	mov    WORD PTR [esi+0x4f8],ax
    6d5a:	c7 86 fa 04 00 00 08 	mov    DWORD PTR [esi+0x4fa],0x8e000008
    6d61:	00 00 8e 
    6d64:	c1 e8 10             	shr    eax,0x10
    6d67:	66 89 86 fe 04 00 00 	mov    WORD PTR [esi+0x4fe],ax
    6d6e:	8b 83 d8 ff ff ff    	mov    eax,DWORD PTR [ebx-0x28]
    6d74:	66 89 86 00 05 00 00 	mov    WORD PTR [esi+0x500],ax
    6d7b:	c7 86 02 05 00 00 08 	mov    DWORD PTR [esi+0x502],0x8e000008
    6d82:	00 00 8e 
    6d85:	c1 e8 10             	shr    eax,0x10
    6d88:	66 89 86 06 05 00 00 	mov    WORD PTR [esi+0x506],ax
    6d8f:	8b 83 b8 fd ff ff    	mov    eax,DWORD PTR [ebx-0x248]
    6d95:	66 89 86 08 05 00 00 	mov    WORD PTR [esi+0x508],ax
    6d9c:	c7 86 0a 05 00 00 08 	mov    DWORD PTR [esi+0x50a],0x8e000008
    6da3:	00 00 8e 
    6da6:	c1 e8 10             	shr    eax,0x10
    6da9:	66 89 86 0e 05 00 00 	mov    WORD PTR [esi+0x50e],ax
    6db0:	8b 83 7c ff ff ff    	mov    eax,DWORD PTR [ebx-0x84]
    6db6:	66 89 86 10 05 00 00 	mov    WORD PTR [esi+0x510],ax
    6dbd:	c7 86 12 05 00 00 08 	mov    DWORD PTR [esi+0x512],0x8e000008
    6dc4:	00 00 8e 
    6dc7:	c1 e8 10             	shr    eax,0x10
    6dca:	66 89 86 16 05 00 00 	mov    WORD PTR [esi+0x516],ax
    6dd1:	8b 83 e8 ff ff ff    	mov    eax,DWORD PTR [ebx-0x18]
    6dd7:	66 89 86 18 05 00 00 	mov    WORD PTR [esi+0x518],ax
    6dde:	c7 86 1a 05 00 00 08 	mov    DWORD PTR [esi+0x51a],0x8e000008
    6de5:	00 00 8e 
    6de8:	c1 e8 10             	shr    eax,0x10
    6deb:	66 89 86 1e 05 00 00 	mov    WORD PTR [esi+0x51e],ax
    6df2:	8b 83 d0 fe ff ff    	mov    eax,DWORD PTR [ebx-0x130]
    6df8:	66 89 86 20 05 00 00 	mov    WORD PTR [esi+0x520],ax
    6dff:	c7 86 22 05 00 00 08 	mov    DWORD PTR [esi+0x522],0x8e000008
    6e06:	00 00 8e 
    6e09:	c1 e8 10             	shr    eax,0x10
    6e0c:	66 89 86 26 05 00 00 	mov    WORD PTR [esi+0x526],ax
    6e13:	8b 93 2c ff ff ff    	mov    edx,DWORD PTR [ebx-0xd4]
    6e19:	66 89 96 28 05 00 00 	mov    WORD PTR [esi+0x528],dx
    6e20:	66 c7 86 2a 05 00 00 	mov    WORD PTR [esi+0x52a],0x8
    6e27:	08 00 
    6e29:	c6 86 2c 05 00 00 00 	mov    BYTE PTR [esi+0x52c],0x0
    6e30:	8a 86 2d 05 00 00    	mov    al,BYTE PTR [esi+0x52d]
    6e36:	83 e0 f0             	and    eax,0xfffffff0
    6e39:	83 c8 0e             	or     eax,0xe
    6e3c:	83 e0 8f             	and    eax,0xffffff8f
    6e3f:	83 c8 80             	or     eax,0xffffff80
    6e42:	88 86 2d 05 00 00    	mov    BYTE PTR [esi+0x52d],al
    6e48:	c1 ea 10             	shr    edx,0x10
    6e4b:	66 89 96 2e 05 00 00 	mov    WORD PTR [esi+0x52e],dx
    6e52:	8b 83 0c fe ff ff    	mov    eax,DWORD PTR [ebx-0x1f4]
    6e58:	66 89 86 30 05 00 00 	mov    WORD PTR [esi+0x530],ax
    6e5f:	c7 86 32 05 00 00 08 	mov    DWORD PTR [esi+0x532],0x8e000008
    6e66:	00 00 8e 
    6e69:	c1 e8 10             	shr    eax,0x10
    6e6c:	66 89 86 36 05 00 00 	mov    WORD PTR [esi+0x536],ax
    6e73:	8b 83 7c fe ff ff    	mov    eax,DWORD PTR [ebx-0x184]
    6e79:	66 89 86 38 05 00 00 	mov    WORD PTR [esi+0x538],ax
    6e80:	c7 86 3a 05 00 00 08 	mov    DWORD PTR [esi+0x53a],0x8e000008
    6e87:	00 00 8e 
    6e8a:	c1 e8 10             	shr    eax,0x10
    6e8d:	66 89 86 3e 05 00 00 	mov    WORD PTR [esi+0x53e],ax
    6e94:	8b 83 48 fd ff ff    	mov    eax,DWORD PTR [ebx-0x2b8]
    6e9a:	66 89 86 40 05 00 00 	mov    WORD PTR [esi+0x540],ax
    6ea1:	c7 86 42 05 00 00 08 	mov    DWORD PTR [esi+0x542],0x8e000008
    6ea8:	00 00 8e 
    6eab:	c1 e8 10             	shr    eax,0x10
    6eae:	66 89 86 46 05 00 00 	mov    WORD PTR [esi+0x546],ax
    6eb5:	8b 83 ac fd ff ff    	mov    eax,DWORD PTR [ebx-0x254]
    6ebb:	66 89 86 48 05 00 00 	mov    WORD PTR [esi+0x548],ax
    6ec2:	c7 86 4a 05 00 00 08 	mov    DWORD PTR [esi+0x54a],0x8e000008
    6ec9:	00 00 8e 
    6ecc:	c1 e8 10             	shr    eax,0x10
    6ecf:	66 89 86 4e 05 00 00 	mov    WORD PTR [esi+0x54e],ax
    6ed6:	8b 83 b0 fd ff ff    	mov    eax,DWORD PTR [ebx-0x250]
    6edc:	66 89 86 50 05 00 00 	mov    WORD PTR [esi+0x550],ax
    6ee3:	c7 86 52 05 00 00 08 	mov    DWORD PTR [esi+0x552],0x8e000008
    6eea:	00 00 8e 
    6eed:	c1 e8 10             	shr    eax,0x10
    6ef0:	66 89 86 56 05 00 00 	mov    WORD PTR [esi+0x556],ax
    6ef7:	8b 83 a4 fe ff ff    	mov    eax,DWORD PTR [ebx-0x15c]
    6efd:	66 89 86 58 05 00 00 	mov    WORD PTR [esi+0x558],ax
    6f04:	c7 86 5a 05 00 00 08 	mov    DWORD PTR [esi+0x55a],0x8e000008
    6f0b:	00 00 8e 
    6f0e:	c1 e8 10             	shr    eax,0x10
    6f11:	66 89 86 5e 05 00 00 	mov    WORD PTR [esi+0x55e],ax
    6f18:	8b 83 d8 fe ff ff    	mov    eax,DWORD PTR [ebx-0x128]
    6f1e:	66 89 86 60 05 00 00 	mov    WORD PTR [esi+0x560],ax
    6f25:	c7 86 62 05 00 00 08 	mov    DWORD PTR [esi+0x562],0x8e000008
    6f2c:	00 00 8e 
    6f2f:	c1 e8 10             	shr    eax,0x10
    6f32:	66 89 86 66 05 00 00 	mov    WORD PTR [esi+0x566],ax
    6f39:	8b 83 d8 fd ff ff    	mov    eax,DWORD PTR [ebx-0x228]
    6f3f:	66 89 86 68 05 00 00 	mov    WORD PTR [esi+0x568],ax
    6f46:	c7 86 6a 05 00 00 08 	mov    DWORD PTR [esi+0x56a],0x8e000008
    6f4d:	00 00 8e 
    6f50:	c1 e8 10             	shr    eax,0x10
    6f53:	66 89 86 6e 05 00 00 	mov    WORD PTR [esi+0x56e],ax
    6f5a:	8b 83 44 fe ff ff    	mov    eax,DWORD PTR [ebx-0x1bc]
    6f60:	66 89 86 70 05 00 00 	mov    WORD PTR [esi+0x570],ax
    6f67:	c7 86 72 05 00 00 08 	mov    DWORD PTR [esi+0x572],0x8e000008
    6f6e:	00 00 8e 
    6f71:	c1 e8 10             	shr    eax,0x10
    6f74:	66 89 86 76 05 00 00 	mov    WORD PTR [esi+0x576],ax
    6f7b:	8b 83 f4 fc ff ff    	mov    eax,DWORD PTR [ebx-0x30c]
    6f81:	66 89 86 78 05 00 00 	mov    WORD PTR [esi+0x578],ax
    6f88:	c7 86 7a 05 00 00 08 	mov    DWORD PTR [esi+0x57a],0x8e000008
    6f8f:	00 00 8e 
    6f92:	c1 e8 10             	shr    eax,0x10
    6f95:	66 89 86 7e 05 00 00 	mov    WORD PTR [esi+0x57e],ax
    6f9c:	8b 83 f8 fd ff ff    	mov    eax,DWORD PTR [ebx-0x208]
    6fa2:	66 89 86 80 05 00 00 	mov    WORD PTR [esi+0x580],ax
    6fa9:	66 c7 86 82 05 00 00 	mov    WORD PTR [esi+0x582],0x8
    6fb0:	08 00 
    6fb2:	66 c7 86 84 05 00 00 	mov    WORD PTR [esi+0x584],0x8e00
    6fb9:	00 8e 
    6fbb:	c1 e8 10             	shr    eax,0x10
    6fbe:	66 89 86 86 05 00 00 	mov    WORD PTR [esi+0x586],ax
    6fc5:	8b 83 b8 ff ff ff    	mov    eax,DWORD PTR [ebx-0x48]
    6fcb:	66 89 86 88 05 00 00 	mov    WORD PTR [esi+0x588],ax
    6fd2:	c7 86 8a 05 00 00 08 	mov    DWORD PTR [esi+0x58a],0x8e000008
    6fd9:	00 00 8e 
    6fdc:	c1 e8 10             	shr    eax,0x10
    6fdf:	66 89 86 8e 05 00 00 	mov    WORD PTR [esi+0x58e],ax
    6fe6:	8b 83 14 fd ff ff    	mov    eax,DWORD PTR [ebx-0x2ec]
    6fec:	66 89 86 90 05 00 00 	mov    WORD PTR [esi+0x590],ax
    6ff3:	c7 86 92 05 00 00 08 	mov    DWORD PTR [esi+0x592],0x8e000008
    6ffa:	00 00 8e 
    6ffd:	c1 e8 10             	shr    eax,0x10
    7000:	66 89 86 96 05 00 00 	mov    WORD PTR [esi+0x596],ax
    7007:	8b 83 0c ff ff ff    	mov    eax,DWORD PTR [ebx-0xf4]
    700d:	66 89 86 98 05 00 00 	mov    WORD PTR [esi+0x598],ax
    7014:	c7 86 9a 05 00 00 08 	mov    DWORD PTR [esi+0x59a],0x8e000008
    701b:	00 00 8e 
    701e:	c1 e8 10             	shr    eax,0x10
    7021:	66 89 86 9e 05 00 00 	mov    WORD PTR [esi+0x59e],ax
    7028:	8b 83 34 fe ff ff    	mov    eax,DWORD PTR [ebx-0x1cc]
    702e:	66 89 86 a0 05 00 00 	mov    WORD PTR [esi+0x5a0],ax
    7035:	c7 86 a2 05 00 00 08 	mov    DWORD PTR [esi+0x5a2],0x8e000008
    703c:	00 00 8e 
    703f:	c1 e8 10             	shr    eax,0x10
    7042:	66 89 86 a6 05 00 00 	mov    WORD PTR [esi+0x5a6],ax
    7049:	8b 83 5c ff ff ff    	mov    eax,DWORD PTR [ebx-0xa4]
    704f:	66 89 86 a8 05 00 00 	mov    WORD PTR [esi+0x5a8],ax
    7056:	c7 86 aa 05 00 00 08 	mov    DWORD PTR [esi+0x5aa],0x8e000008
    705d:	00 00 8e 
    7060:	c1 e8 10             	shr    eax,0x10
    7063:	66 89 86 ae 05 00 00 	mov    WORD PTR [esi+0x5ae],ax
    706a:	8b 83 60 fd ff ff    	mov    eax,DWORD PTR [ebx-0x2a0]
    7070:	66 89 86 b0 05 00 00 	mov    WORD PTR [esi+0x5b0],ax
    7077:	c7 86 b2 05 00 00 08 	mov    DWORD PTR [esi+0x5b2],0x8e000008
    707e:	00 00 8e 
    7081:	c1 e8 10             	shr    eax,0x10
    7084:	66 89 86 b6 05 00 00 	mov    WORD PTR [esi+0x5b6],ax
    708b:	8b 83 08 fd ff ff    	mov    eax,DWORD PTR [ebx-0x2f8]
    7091:	66 89 86 b8 05 00 00 	mov    WORD PTR [esi+0x5b8],ax
    7098:	c7 86 ba 05 00 00 08 	mov    DWORD PTR [esi+0x5ba],0x8e000008
    709f:	00 00 8e 
    70a2:	c1 e8 10             	shr    eax,0x10
    70a5:	66 89 86 be 05 00 00 	mov    WORD PTR [esi+0x5be],ax
    70ac:	8b 83 ec fe ff ff    	mov    eax,DWORD PTR [ebx-0x114]
    70b2:	66 89 86 c0 05 00 00 	mov    WORD PTR [esi+0x5c0],ax
    70b9:	c7 86 c2 05 00 00 08 	mov    DWORD PTR [esi+0x5c2],0x8e000008
    70c0:	00 00 8e 
    70c3:	c1 e8 10             	shr    eax,0x10
    70c6:	66 89 86 c6 05 00 00 	mov    WORD PTR [esi+0x5c6],ax
    70cd:	8b 83 58 ff ff ff    	mov    eax,DWORD PTR [ebx-0xa8]
    70d3:	66 89 86 c8 05 00 00 	mov    WORD PTR [esi+0x5c8],ax
    70da:	c7 86 ca 05 00 00 08 	mov    DWORD PTR [esi+0x5ca],0x8e000008
    70e1:	00 00 8e 
    70e4:	c1 e8 10             	shr    eax,0x10
    70e7:	66 89 86 ce 05 00 00 	mov    WORD PTR [esi+0x5ce],ax
    70ee:	8b 93 54 fe ff ff    	mov    edx,DWORD PTR [ebx-0x1ac]
    70f4:	66 89 96 d0 05 00 00 	mov    WORD PTR [esi+0x5d0],dx
    70fb:	66 c7 86 d2 05 00 00 	mov    WORD PTR [esi+0x5d2],0x8
    7102:	08 00 
    7104:	c6 86 d4 05 00 00 00 	mov    BYTE PTR [esi+0x5d4],0x0
    710b:	8a 86 d5 05 00 00    	mov    al,BYTE PTR [esi+0x5d5]
    7111:	83 e0 f0             	and    eax,0xfffffff0
    7114:	83 c8 0e             	or     eax,0xe
    7117:	83 e0 8f             	and    eax,0xffffff8f
    711a:	83 c8 80             	or     eax,0xffffff80
    711d:	88 86 d5 05 00 00    	mov    BYTE PTR [esi+0x5d5],al
    7123:	c1 ea 10             	shr    edx,0x10
    7126:	66 89 96 d6 05 00 00 	mov    WORD PTR [esi+0x5d6],dx
    712d:	8b 83 a0 fe ff ff    	mov    eax,DWORD PTR [ebx-0x160]
    7133:	66 89 86 d8 05 00 00 	mov    WORD PTR [esi+0x5d8],ax
    713a:	c7 86 da 05 00 00 08 	mov    DWORD PTR [esi+0x5da],0x8e000008
    7141:	00 00 8e 
    7144:	c1 e8 10             	shr    eax,0x10
    7147:	66 89 86 de 05 00 00 	mov    WORD PTR [esi+0x5de],ax
    714e:	8b 83 80 fd ff ff    	mov    eax,DWORD PTR [ebx-0x280]
    7154:	66 89 86 e0 05 00 00 	mov    WORD PTR [esi+0x5e0],ax
    715b:	c7 86 e2 05 00 00 08 	mov    DWORD PTR [esi+0x5e2],0x8e000008
    7162:	00 00 8e 
    7165:	c1 e8 10             	shr    eax,0x10
    7168:	66 89 86 e6 05 00 00 	mov    WORD PTR [esi+0x5e6],ax
    716f:	8b 83 d4 fe ff ff    	mov    eax,DWORD PTR [ebx-0x12c]
    7175:	66 89 86 f0 05 00 00 	mov    WORD PTR [esi+0x5f0],ax
    717c:	c7 86 f2 05 00 00 08 	mov    DWORD PTR [esi+0x5f2],0x8e000008
    7183:	00 00 8e 
    7186:	c1 e8 10             	shr    eax,0x10
    7189:	66 89 86 f6 05 00 00 	mov    WORD PTR [esi+0x5f6],ax
    7190:	8b 83 d0 ff ff ff    	mov    eax,DWORD PTR [ebx-0x30]
    7196:	66 89 86 f8 05 00 00 	mov    WORD PTR [esi+0x5f8],ax
    719d:	c7 86 fa 05 00 00 08 	mov    DWORD PTR [esi+0x5fa],0x8e000008
    71a4:	00 00 8e 
    71a7:	c1 e8 10             	shr    eax,0x10
    71aa:	66 89 86 fe 05 00 00 	mov    WORD PTR [esi+0x5fe],ax
    71b1:	8b 83 68 fd ff ff    	mov    eax,DWORD PTR [ebx-0x298]
    71b7:	66 c7 00 ff 07       	mov    WORD PTR [eax],0x7ff
    71bc:	89 70 02             	mov    DWORD PTR [eax+0x2],esi
    71bf:	83 c4 14             	add    esp,0x14
    71c2:	5b                   	pop    ebx
    71c3:	5e                   	pop    esi
    71c4:	c3                   	ret    
    71c5:	8d 76 00             	lea    esi,[esi+0x0]

000071c8 <SetupIDT>:
    71c8:	53                   	push   ebx
    71c9:	83 ec 14             	sub    esp,0x14
    71cc:	e8 1f e0 ff ff       	call   51f0 <_Z13EnumerateMADTPFvP14MADTEntryLAPICEPFvP15MADTEntryIOAPICEPFvP12MADTEntryISRE+0x9c>
    71d1:	81 c3 27 42 00 00    	add    ebx,0x4227
    71d7:	ff b3 68 fd ff ff    	push   DWORD PTR [ebx-0x298]
    71dd:	e8 9e d5 ff ff       	call   4780 <ExecuteLIDT@plt>
    71e2:	83 c4 18             	add    esp,0x18
    71e5:	5b                   	pop    ebx
    71e6:	c3                   	ret    
    71e7:	66 90                	xchg   ax,ax
    71e9:	66 90                	xchg   ax,ax
    71eb:	66 90                	xchg   ax,ax
    71ed:	66 90                	xchg   ax,ax
    71ef:	90                   	nop

000071f0 <DoubleFault>:
    71f0:	e8 fc ff ff ff       	call   71f1 <DoubleFault+0x1>
    71f5:	cf                   	iret   

000071f6 <InvalidTSS>:
    71f6:	e8 fc ff ff ff       	call   71f7 <InvalidTSS+0x1>
    71fb:	cf                   	iret   

000071fc <SegmentNotPresent>:
    71fc:	e8 fc ff ff ff       	call   71fd <SegmentNotPresent+0x1>
    7201:	cf                   	iret   

00007202 <GeneralProtectionFault>:
    7202:	e8 fc ff ff ff       	call   7203 <GeneralProtectionFault+0x1>
    7207:	cf                   	iret   

00007208 <PageFault>:
    7208:	0f 20 d0             	mov    eax,cr2
    720b:	a3 a0 bd 00 00       	mov    ds:0xbda0,eax
    7210:	e8 fc ff ff ff       	call   7211 <PageFault+0x9>
    7215:	cf                   	iret   
    7216:	cf                   	iret   

00007217 <TimerUpdate>:
    7217:	52                   	push   edx
    7218:	e8 fc ff ff ff       	call   7219 <TimerUpdate+0x2>
    721d:	5a                   	pop    edx
    721e:	cf                   	iret   
    721f:	f0 ff 05 a4 bd 00 00 	lock inc DWORD PTR ds:0xbda4
    7226:	52                   	push   edx
    7227:	e8 fc ff ff ff       	call   7228 <TimerUpdate+0x11>
    722c:	5a                   	pop    edx
    722d:	0f ae f0             	mfence 
    7230:	cf                   	iret   

00007231 <TimerWait>:
    7231:	8b 5c 24 04          	mov    ebx,DWORD PTR [esp+0x4]
    7235:	03 1d a4 bd 00 00    	add    ebx,DWORD PTR ds:0xbda4
    723b:	90                   	nop
    723c:	f3 90                	pause  
    723e:	39 1d a4 bd 00 00    	cmp    DWORD PTR ds:0xbda4,ebx
    7244:	75 f5                	jne    723b <TimerWait+0xa>
    7246:	c3                   	ret    

00007247 <Executable_ProcessorBinding_IPIRequest_Invoker>:
    7247:	60                   	pusha  
    7248:	55                   	push   ebp
    7249:	56                   	push   esi
    724a:	57                   	push   edi
    724b:	e8 fc ff ff ff       	call   724c <Executable_ProcessorBinding_IPIRequest_Invoker+0x5>
    7250:	e8 fc ff ff ff       	call   7251 <Executable_ProcessorBinding_IPIRequest_Invoker+0xa>
    7255:	5f                   	pop    edi
    7256:	5e                   	pop    esi
    7257:	5d                   	pop    ebp
    7258:	61                   	popa   
    7259:	cf                   	iret   
    725a:	66 90                	xchg   ax,ax
    725c:	66 90                	xchg   ax,ax
    725e:	66 90                	xchg   ax,ax

00007260 <ReadPort>:
    7260:	8b 54 24 04          	mov    edx,DWORD PTR [esp+0x4]
    7264:	ec                   	in     al,dx
    7265:	c3                   	ret    

00007266 <WritePort>:
    7266:	8b 54 24 04          	mov    edx,DWORD PTR [esp+0x4]
    726a:	8a 44 24 08          	mov    al,BYTE PTR [esp+0x8]
    726e:	ee                   	out    dx,al
    726f:	c3                   	ret    

00007270 <_ZN3HAL6IOAPICC1Emm>:
    7270:	55                   	push   ebp
    7271:	57                   	push   edi
    7272:	56                   	push   esi
    7273:	53                   	push   ebx
    7274:	83 ec 10             	sub    esp,0x10
    7277:	e8 89 01 00 00       	call   7405 <_ZN3HAL6IOAPIC14registerIOAPICEP15MADTEntryIOAPIC+0x59>
    727c:	81 c5 7c 41 00 00    	add    ebp,0x417c
    7282:	8b 74 24 24          	mov    esi,DWORD PTR [esp+0x24]
    7286:	8b 44 24 28          	mov    eax,DWORD PTR [esp+0x28]
    728a:	89 46 10             	mov    DWORD PTR [esi+0x10],eax
    728d:	6a 00                	push   0x0
    728f:	6a 01                	push   0x1
    7291:	6a 00                	push   0x0
    7293:	89 eb                	mov    ebx,ebp
    7295:	e8 e6 d1 ff ff       	call   4480 <_Z15KiPagesAllocatemmm@plt>
    729a:	89 c7                	mov    edi,eax
    729c:	83 c4 0c             	add    esp,0xc
    729f:	6a 00                	push   0x0
    72a1:	6a 0b                	push   0xb
    72a3:	6a 00                	push   0x0
    72a5:	6a 00                	push   0x0
    72a7:	8b 4e 10             	mov    ecx,DWORD PTR [esi+0x10]
    72aa:	81 e1 00 f0 ff ff    	and    ecx,0xfffff000
    72b0:	31 db                	xor    ebx,ebx
    72b2:	53                   	push   ebx
    72b3:	51                   	push   ecx
    72b4:	50                   	push   eax
    72b5:	89 eb                	mov    ebx,ebp
    72b7:	e8 94 d3 ff ff       	call   4650 <EnsureMapping@plt>
    72bc:	8b 56 10             	mov    edx,DWORD PTR [esi+0x10]
    72bf:	81 e2 ff 0f 00 00    	and    edx,0xfff
    72c5:	8d 04 3a             	lea    eax,[edx+edi*1]
    72c8:	89 46 14             	mov    DWORD PTR [esi+0x14],eax
    72cb:	c7 00 00 00 00 00    	mov    DWORD PTR [eax],0x0
    72d1:	8b 50 10             	mov    edx,DWORD PTR [eax+0x10]
    72d4:	c1 ea 04             	shr    edx,0x4
    72d7:	88 56 0c             	mov    BYTE PTR [esi+0xc],dl
    72da:	c7 00 01 00 00 00    	mov    DWORD PTR [eax],0x1
    72e0:	8b 50 10             	mov    edx,DWORD PTR [eax+0x10]
    72e3:	88 56 0d             	mov    BYTE PTR [esi+0xd],dl
    72e6:	c7 00 01 00 00 00    	mov    DWORD PTR [eax],0x1
    72ec:	8b 50 10             	mov    edx,DWORD PTR [eax+0x10]
    72ef:	c1 ea 10             	shr    edx,0x10
    72f2:	42                   	inc    edx
    72f3:	88 56 0e             	mov    BYTE PTR [esi+0xe],dl
    72f6:	c7 00 02 00 00 00    	mov    DWORD PTR [eax],0x2
    72fc:	8b 40 10             	mov    eax,DWORD PTR [eax+0x10]
    72ff:	c1 e8 04             	shr    eax,0x4
    7302:	88 46 0f             	mov    BYTE PTR [esi+0xf],al
    7305:	83 c4 2c             	add    esp,0x2c
    7308:	5b                   	pop    ebx
    7309:	5e                   	pop    esi
    730a:	5f                   	pop    edi
    730b:	5d                   	pop    ebp
    730c:	c3                   	ret    
    730d:	90                   	nop
    730e:	66 90                	xchg   ax,ax

00007310 <_ZN3HAL6IOAPIC11getRedirEntEh>:
    7310:	53                   	push   ebx
    7311:	8b 44 24 08          	mov    eax,DWORD PTR [esp+0x8]
    7315:	8b 4c 24 0c          	mov    ecx,DWORD PTR [esp+0xc]
    7319:	8b 54 24 10          	mov    edx,DWORD PTR [esp+0x10]
    731d:	38 51 0e             	cmp    BYTE PTR [ecx+0xe],dl
    7320:	76 22                	jbe    7344 <_ZN3HAL6IOAPIC11getRedirEntEh+0x34>
    7322:	8d 54 12 10          	lea    edx,[edx+edx*1+0x10]
    7326:	8b 49 14             	mov    ecx,DWORD PTR [ecx+0x14]
    7329:	0f b6 da             	movzx  ebx,dl
    732c:	89 19                	mov    DWORD PTR [ecx],ebx
    732e:	8b 59 10             	mov    ebx,DWORD PTR [ecx+0x10]
    7331:	42                   	inc    edx
    7332:	0f b6 d2             	movzx  edx,dl
    7335:	89 11                	mov    DWORD PTR [ecx],edx
    7337:	8b 51 10             	mov    edx,DWORD PTR [ecx+0x10]
    733a:	89 18                	mov    DWORD PTR [eax],ebx
    733c:	89 50 04             	mov    DWORD PTR [eax+0x4],edx
    733f:	5b                   	pop    ebx
    7340:	c2 04 00             	ret    0x4
    7343:	90                   	nop
    7344:	31 d2                	xor    edx,edx
    7346:	31 db                	xor    ebx,ebx
    7348:	89 18                	mov    DWORD PTR [eax],ebx
    734a:	89 50 04             	mov    DWORD PTR [eax+0x4],edx
    734d:	5b                   	pop    ebx
    734e:	c2 04 00             	ret    0x4
    7351:	90                   	nop
    7352:	66 90                	xchg   ax,ax

00007354 <_ZN3HAL6IOAPIC11setRedirEntEhPNS0_16RedirectionEntryE>:
    7354:	56                   	push   esi
    7355:	53                   	push   ebx
    7356:	52                   	push   edx
    7357:	e8 94 de ff ff       	call   51f0 <_Z13EnumerateMADTPFvP14MADTEntryLAPICEPFvP15MADTEntryIOAPICEPFvP12MADTEntryISRE+0x9c>
    735c:	81 c3 9c 40 00 00    	add    ebx,0x409c
    7362:	8b 54 24 10          	mov    edx,DWORD PTR [esp+0x10]
    7366:	8b 44 24 14          	mov    eax,DWORD PTR [esp+0x14]
    736a:	8b 4c 24 18          	mov    ecx,DWORD PTR [esp+0x18]
    736e:	38 42 0e             	cmp    BYTE PTR [edx+0xe],al
    7371:	76 21                	jbe    7394 <_ZN3HAL6IOAPIC11setRedirEntEhPNS0_16RedirectionEntryE+0x40>
    7373:	8b 19                	mov    ebx,DWORD PTR [ecx]
    7375:	8d 44 00 10          	lea    eax,[eax+eax*1+0x10]
    7379:	8b 52 14             	mov    edx,DWORD PTR [edx+0x14]
    737c:	0f b6 f0             	movzx  esi,al
    737f:	89 32                	mov    DWORD PTR [edx],esi
    7381:	89 5a 10             	mov    DWORD PTR [edx+0x10],ebx
    7384:	8b 49 04             	mov    ecx,DWORD PTR [ecx+0x4]
    7387:	40                   	inc    eax
    7388:	0f b6 c0             	movzx  eax,al
    738b:	89 02                	mov    DWORD PTR [edx],eax
    738d:	89 4a 10             	mov    DWORD PTR [edx+0x10],ecx
    7390:	58                   	pop    eax
    7391:	5b                   	pop    ebx
    7392:	5e                   	pop    esi
    7393:	c3                   	ret    
    7394:	83 ec 0c             	sub    esp,0xc
    7397:	8d 83 87 e7 ff ff    	lea    eax,[ebx-0x1879]
    739d:	50                   	push   eax
    739e:	e8 3d d0 ff ff       	call   43e0 <DbgLine@plt>
    73a3:	83 c4 10             	add    esp,0x10
    73a6:	58                   	pop    eax
    73a7:	5b                   	pop    ebx
    73a8:	5e                   	pop    esi
    73a9:	c3                   	ret    
    73aa:	66 90                	xchg   ax,ax

000073ac <_ZN3HAL6IOAPIC14registerIOAPICEP15MADTEntryIOAPIC>:
    73ac:	57                   	push   edi
    73ad:	56                   	push   esi
    73ae:	53                   	push   ebx
    73af:	e8 3c de ff ff       	call   51f0 <_Z13EnumerateMADTPFvP14MADTEntryLAPICEPFvP15MADTEntryIOAPICEPFvP12MADTEntryISRE+0x9c>
    73b4:	81 c3 44 40 00 00    	add    ebx,0x4044
    73ba:	8b 74 24 10          	mov    esi,DWORD PTR [esp+0x10]
    73be:	83 ec 08             	sub    esp,0x8
    73c1:	6a 01                	push   0x1
    73c3:	6a 18                	push   0x18
    73c5:	e8 f6 d0 ff ff       	call   44c0 <_Z7kmallocjj@plt>
    73ca:	89 c7                	mov    edi,eax
    73cc:	83 c4 0c             	add    esp,0xc
    73cf:	ff 76 06             	push   DWORD PTR [esi+0x6]
    73d2:	ff 76 02             	push   DWORD PTR [esi+0x2]
    73d5:	50                   	push   eax
    73d6:	e8 e5 cf ff ff       	call   43c0 <_ZN3HAL6IOAPICC1Emm@plt>
    73db:	83 c4 10             	add    esp,0x10
    73de:	8a 47 0c             	mov    al,BYTE PTR [edi+0xc]
    73e1:	38 06                	cmp    BYTE PTR [esi],al
    73e3:	74 1c                	je     7401 <_ZN3HAL6IOAPIC14registerIOAPICEP15MADTEntryIOAPIC+0x55>
    73e5:	83 ec 0c             	sub    esp,0xc
    73e8:	8d 83 8c e7 ff ff    	lea    eax,[ebx-0x1874]
    73ee:	50                   	push   eax
    73ef:	e8 ec cf ff ff       	call   43e0 <DbgLine@plt>
    73f4:	58                   	pop    eax
    73f5:	5a                   	pop    edx
    73f6:	6a 00                	push   0x0
    73f8:	57                   	push   edi
    73f9:	e8 62 d1 ff ff       	call   4560 <_Z5kfreePvb@plt>
    73fe:	83 c4 10             	add    esp,0x10
    7401:	5b                   	pop    ebx
    7402:	5e                   	pop    esi
    7403:	5f                   	pop    edi
    7404:	c3                   	ret    
    7405:	8b 2c 24             	mov    ebp,DWORD PTR [esp]
    7408:	c3                   	ret    
    7409:	66 90                	xchg   ax,ax
    740b:	66 90                	xchg   ax,ax
    740d:	66 90                	xchg   ax,ax
    740f:	66 90                	xchg   ax,ax
    7411:	66 90                	xchg   ax,ax
    7413:	66 90                	xchg   ax,ax
    7415:	66 90                	xchg   ax,ax
    7417:	66 90                	xchg   ax,ax
    7419:	66 90                	xchg   ax,ax
    741b:	66 90                	xchg   ax,ax
    741d:	66 90                	xchg   ax,ax
    741f:	66 90                	xchg   ax,ax
    7421:	66 90                	xchg   ax,ax
    7423:	66 90                	xchg   ax,ax
    7425:	66 90                	xchg   ax,ax
    7427:	66 90                	xchg   ax,ax
    7429:	66 90                	xchg   ax,ax
    742b:	66 90                	xchg   ax,ax
    742d:	66 90                	xchg   ax,ax
    742f:	66 90                	xchg   ax,ax
    7431:	66 90                	xchg   ax,ax
    7433:	66 90                	xchg   ax,ax
    7435:	66 90                	xchg   ax,ax
    7437:	66 90                	xchg   ax,ax
    7439:	66 90                	xchg   ax,ax
    743b:	66 90                	xchg   ax,ax
    743d:	66 90                	xchg   ax,ax
    743f:	66 90                	xchg   ax,ax
    7441:	66 90                	xchg   ax,ax
    7443:	66 90                	xchg   ax,ax
    7445:	66 90                	xchg   ax,ax
    7447:	66 90                	xchg   ax,ax
    7449:	66 90                	xchg   ax,ax
    744b:	66 90                	xchg   ax,ax
    744d:	66 90                	xchg   ax,ax
    744f:	66 90                	xchg   ax,ax
    7451:	66 90                	xchg   ax,ax
    7453:	66 90                	xchg   ax,ax
    7455:	66 90                	xchg   ax,ax
    7457:	66 90                	xchg   ax,ax
    7459:	66 90                	xchg   ax,ax
    745b:	66 90                	xchg   ax,ax
    745d:	66 90                	xchg   ax,ax
    745f:	66 90                	xchg   ax,ax
    7461:	66 90                	xchg   ax,ax
    7463:	66 90                	xchg   ax,ax
    7465:	66 90                	xchg   ax,ax
    7467:	66 90                	xchg   ax,ax
    7469:	66 90                	xchg   ax,ax
    746b:	66 90                	xchg   ax,ax
    746d:	66 90                	xchg   ax,ax
    746f:	66 90                	xchg   ax,ax
    7471:	66 90                	xchg   ax,ax
    7473:	66 90                	xchg   ax,ax
    7475:	66 90                	xchg   ax,ax
    7477:	66 90                	xchg   ax,ax
    7479:	66 90                	xchg   ax,ax
    747b:	66 90                	xchg   ax,ax
    747d:	66 90                	xchg   ax,ax
    747f:	66 90                	xchg   ax,ax
    7481:	66 90                	xchg   ax,ax
    7483:	66 90                	xchg   ax,ax
    7485:	66 90                	xchg   ax,ax
    7487:	66 90                	xchg   ax,ax
    7489:	66 90                	xchg   ax,ax
    748b:	66 90                	xchg   ax,ax
    748d:	66 90                	xchg   ax,ax
    748f:	66 90                	xchg   ax,ax
    7491:	66 90                	xchg   ax,ax
    7493:	66 90                	xchg   ax,ax
    7495:	66 90                	xchg   ax,ax
    7497:	66 90                	xchg   ax,ax
    7499:	66 90                	xchg   ax,ax
    749b:	66 90                	xchg   ax,ax
    749d:	66 90                	xchg   ax,ax
    749f:	66 90                	xchg   ax,ax
    74a1:	66 90                	xchg   ax,ax
    74a3:	66 90                	xchg   ax,ax
    74a5:	66 90                	xchg   ax,ax
    74a7:	66 90                	xchg   ax,ax
    74a9:	66 90                	xchg   ax,ax
    74ab:	66 90                	xchg   ax,ax
    74ad:	66 90                	xchg   ax,ax
    74af:	66 90                	xchg   ax,ax
    74b1:	66 90                	xchg   ax,ax
    74b3:	66 90                	xchg   ax,ax
    74b5:	66 90                	xchg   ax,ax
    74b7:	66 90                	xchg   ax,ax
    74b9:	66 90                	xchg   ax,ax
    74bb:	66 90                	xchg   ax,ax
    74bd:	66 90                	xchg   ax,ax
    74bf:	66 90                	xchg   ax,ax
    74c1:	66 90                	xchg   ax,ax
    74c3:	66 90                	xchg   ax,ax
    74c5:	66 90                	xchg   ax,ax
    74c7:	66 90                	xchg   ax,ax
    74c9:	66 90                	xchg   ax,ax
    74cb:	66 90                	xchg   ax,ax
    74cd:	66 90                	xchg   ax,ax
    74cf:	66 90                	xchg   ax,ax
    74d1:	66 90                	xchg   ax,ax
    74d3:	66 90                	xchg   ax,ax
    74d5:	66 90                	xchg   ax,ax
    74d7:	66 90                	xchg   ax,ax
    74d9:	66 90                	xchg   ax,ax
    74db:	66 90                	xchg   ax,ax
    74dd:	66 90                	xchg   ax,ax
    74df:	66 90                	xchg   ax,ax
    74e1:	66 90                	xchg   ax,ax
    74e3:	66 90                	xchg   ax,ax
    74e5:	66 90                	xchg   ax,ax
    74e7:	66 90                	xchg   ax,ax
    74e9:	66 90                	xchg   ax,ax
    74eb:	66 90                	xchg   ax,ax
    74ed:	66 90                	xchg   ax,ax
    74ef:	66 90                	xchg   ax,ax
    74f1:	66 90                	xchg   ax,ax
    74f3:	66 90                	xchg   ax,ax
    74f5:	66 90                	xchg   ax,ax
    74f7:	66 90                	xchg   ax,ax
    74f9:	66 90                	xchg   ax,ax
    74fb:	66 90                	xchg   ax,ax
    74fd:	66 90                	xchg   ax,ax
    74ff:	66 90                	xchg   ax,ax
    7501:	66 90                	xchg   ax,ax
    7503:	66 90                	xchg   ax,ax
    7505:	66 90                	xchg   ax,ax
    7507:	66 90                	xchg   ax,ax
    7509:	66 90                	xchg   ax,ax
    750b:	66 90                	xchg   ax,ax
    750d:	66 90                	xchg   ax,ax
    750f:	66 90                	xchg   ax,ax
    7511:	66 90                	xchg   ax,ax
    7513:	66 90                	xchg   ax,ax
    7515:	66 90                	xchg   ax,ax
    7517:	66 90                	xchg   ax,ax
    7519:	66 90                	xchg   ax,ax
    751b:	66 90                	xchg   ax,ax
    751d:	66 90                	xchg   ax,ax
    751f:	66 90                	xchg   ax,ax
    7521:	66 90                	xchg   ax,ax
    7523:	66 90                	xchg   ax,ax
    7525:	66 90                	xchg   ax,ax
    7527:	66 90                	xchg   ax,ax
    7529:	66 90                	xchg   ax,ax
    752b:	66 90                	xchg   ax,ax
    752d:	66 90                	xchg   ax,ax
    752f:	66 90                	xchg   ax,ax
    7531:	66 90                	xchg   ax,ax
    7533:	66 90                	xchg   ax,ax
    7535:	66 90                	xchg   ax,ax
    7537:	66 90                	xchg   ax,ax
    7539:	66 90                	xchg   ax,ax
    753b:	66 90                	xchg   ax,ax
    753d:	66 90                	xchg   ax,ax
    753f:	66 90                	xchg   ax,ax
    7541:	66 90                	xchg   ax,ax
    7543:	66 90                	xchg   ax,ax
    7545:	66 90                	xchg   ax,ax
    7547:	66 90                	xchg   ax,ax
    7549:	66 90                	xchg   ax,ax
    754b:	66 90                	xchg   ax,ax
    754d:	66 90                	xchg   ax,ax
    754f:	66 90                	xchg   ax,ax
    7551:	66 90                	xchg   ax,ax
    7553:	66 90                	xchg   ax,ax
    7555:	66 90                	xchg   ax,ax
    7557:	66 90                	xchg   ax,ax
    7559:	66 90                	xchg   ax,ax
    755b:	66 90                	xchg   ax,ax
    755d:	66 90                	xchg   ax,ax
    755f:	66 90                	xchg   ax,ax
    7561:	66 90                	xchg   ax,ax
    7563:	66 90                	xchg   ax,ax
    7565:	66 90                	xchg   ax,ax
    7567:	66 90                	xchg   ax,ax
    7569:	66 90                	xchg   ax,ax
    756b:	66 90                	xchg   ax,ax
    756d:	66 90                	xchg   ax,ax
    756f:	66 90                	xchg   ax,ax
    7571:	66 90                	xchg   ax,ax
    7573:	66 90                	xchg   ax,ax
    7575:	66 90                	xchg   ax,ax
    7577:	66 90                	xchg   ax,ax
    7579:	66 90                	xchg   ax,ax
    757b:	66 90                	xchg   ax,ax
    757d:	66 90                	xchg   ax,ax
    757f:	66 90                	xchg   ax,ax
    7581:	66 90                	xchg   ax,ax
    7583:	66 90                	xchg   ax,ax
    7585:	66 90                	xchg   ax,ax
    7587:	66 90                	xchg   ax,ax
    7589:	66 90                	xchg   ax,ax
    758b:	66 90                	xchg   ax,ax
    758d:	66 90                	xchg   ax,ax
    758f:	66 90                	xchg   ax,ax
    7591:	66 90                	xchg   ax,ax
    7593:	66 90                	xchg   ax,ax
    7595:	66 90                	xchg   ax,ax
    7597:	66 90                	xchg   ax,ax
    7599:	66 90                	xchg   ax,ax
    759b:	66 90                	xchg   ax,ax
    759d:	66 90                	xchg   ax,ax
    759f:	66 90                	xchg   ax,ax
    75a1:	66 90                	xchg   ax,ax
    75a3:	66 90                	xchg   ax,ax
    75a5:	66 90                	xchg   ax,ax
    75a7:	66 90                	xchg   ax,ax
    75a9:	66 90                	xchg   ax,ax
    75ab:	66 90                	xchg   ax,ax
    75ad:	66 90                	xchg   ax,ax
    75af:	66 90                	xchg   ax,ax
    75b1:	66 90                	xchg   ax,ax
    75b3:	66 90                	xchg   ax,ax
    75b5:	66 90                	xchg   ax,ax
    75b7:	66 90                	xchg   ax,ax
    75b9:	66 90                	xchg   ax,ax
    75bb:	66 90                	xchg   ax,ax
    75bd:	66 90                	xchg   ax,ax
    75bf:	66 90                	xchg   ax,ax
    75c1:	66 90                	xchg   ax,ax
    75c3:	66 90                	xchg   ax,ax
    75c5:	66 90                	xchg   ax,ax
    75c7:	66 90                	xchg   ax,ax
    75c9:	66 90                	xchg   ax,ax
    75cb:	66 90                	xchg   ax,ax
    75cd:	66 90                	xchg   ax,ax
    75cf:	66 90                	xchg   ax,ax
    75d1:	66 90                	xchg   ax,ax
    75d3:	66 90                	xchg   ax,ax
    75d5:	66 90                	xchg   ax,ax
    75d7:	66 90                	xchg   ax,ax
    75d9:	66 90                	xchg   ax,ax
    75db:	66 90                	xchg   ax,ax
    75dd:	66 90                	xchg   ax,ax
    75df:	66 90                	xchg   ax,ax
    75e1:	66 90                	xchg   ax,ax
    75e3:	66 90                	xchg   ax,ax
    75e5:	66 90                	xchg   ax,ax
    75e7:	66 90                	xchg   ax,ax
    75e9:	66 90                	xchg   ax,ax
    75eb:	66 90                	xchg   ax,ax
    75ed:	66 90                	xchg   ax,ax
    75ef:	66 90                	xchg   ax,ax
    75f1:	66 90                	xchg   ax,ax
    75f3:	66 90                	xchg   ax,ax
    75f5:	66 90                	xchg   ax,ax
    75f7:	66 90                	xchg   ax,ax
    75f9:	66 90                	xchg   ax,ax
    75fb:	66 90                	xchg   ax,ax
    75fd:	66 90                	xchg   ax,ax
    75ff:	66 90                	xchg   ax,ax
    7601:	66 90                	xchg   ax,ax
    7603:	66 90                	xchg   ax,ax
    7605:	66 90                	xchg   ax,ax
    7607:	66 90                	xchg   ax,ax
    7609:	66 90                	xchg   ax,ax
    760b:	66 90                	xchg   ax,ax
    760d:	66 90                	xchg   ax,ax
    760f:	66 90                	xchg   ax,ax
    7611:	66 90                	xchg   ax,ax
    7613:	66 90                	xchg   ax,ax
    7615:	66 90                	xchg   ax,ax
    7617:	66 90                	xchg   ax,ax
    7619:	66 90                	xchg   ax,ax
    761b:	66 90                	xchg   ax,ax
    761d:	66 90                	xchg   ax,ax
    761f:	66 90                	xchg   ax,ax
    7621:	66 90                	xchg   ax,ax
    7623:	66 90                	xchg   ax,ax
    7625:	66 90                	xchg   ax,ax
    7627:	66 90                	xchg   ax,ax
    7629:	66 90                	xchg   ax,ax
    762b:	66 90                	xchg   ax,ax
    762d:	66 90                	xchg   ax,ax
    762f:	66 90                	xchg   ax,ax
    7631:	66 90                	xchg   ax,ax
    7633:	66 90                	xchg   ax,ax
    7635:	66 90                	xchg   ax,ax
    7637:	66 90                	xchg   ax,ax
    7639:	66 90                	xchg   ax,ax
    763b:	66 90                	xchg   ax,ax
    763d:	66 90                	xchg   ax,ax
    763f:	66 90                	xchg   ax,ax
    7641:	66 90                	xchg   ax,ax
    7643:	66 90                	xchg   ax,ax
    7645:	66 90                	xchg   ax,ax
    7647:	66 90                	xchg   ax,ax
    7649:	66 90                	xchg   ax,ax
    764b:	66 90                	xchg   ax,ax
    764d:	66 90                	xchg   ax,ax
    764f:	66 90                	xchg   ax,ax
    7651:	66 90                	xchg   ax,ax
    7653:	66 90                	xchg   ax,ax
    7655:	66 90                	xchg   ax,ax
    7657:	66 90                	xchg   ax,ax
    7659:	66 90                	xchg   ax,ax
    765b:	66 90                	xchg   ax,ax
    765d:	66 90                	xchg   ax,ax
    765f:	66 90                	xchg   ax,ax
    7661:	66 90                	xchg   ax,ax
    7663:	66 90                	xchg   ax,ax
    7665:	66 90                	xchg   ax,ax
    7667:	66 90                	xchg   ax,ax
    7669:	66 90                	xchg   ax,ax
    766b:	66 90                	xchg   ax,ax
    766d:	66 90                	xchg   ax,ax
    766f:	66 90                	xchg   ax,ax
    7671:	66 90                	xchg   ax,ax
    7673:	66 90                	xchg   ax,ax
    7675:	66 90                	xchg   ax,ax
    7677:	66 90                	xchg   ax,ax
    7679:	66 90                	xchg   ax,ax
    767b:	66 90                	xchg   ax,ax
    767d:	66 90                	xchg   ax,ax
    767f:	66 90                	xchg   ax,ax
    7681:	66 90                	xchg   ax,ax
    7683:	66 90                	xchg   ax,ax
    7685:	66 90                	xchg   ax,ax
    7687:	66 90                	xchg   ax,ax
    7689:	66 90                	xchg   ax,ax
    768b:	66 90                	xchg   ax,ax
    768d:	66 90                	xchg   ax,ax
    768f:	66 90                	xchg   ax,ax
    7691:	66 90                	xchg   ax,ax
    7693:	66 90                	xchg   ax,ax
    7695:	66 90                	xchg   ax,ax
    7697:	66 90                	xchg   ax,ax
    7699:	66 90                	xchg   ax,ax
    769b:	66 90                	xchg   ax,ax
    769d:	66 90                	xchg   ax,ax
    769f:	66 90                	xchg   ax,ax
    76a1:	66 90                	xchg   ax,ax
    76a3:	66 90                	xchg   ax,ax
    76a5:	66 90                	xchg   ax,ax
    76a7:	66 90                	xchg   ax,ax
    76a9:	66 90                	xchg   ax,ax
    76ab:	66 90                	xchg   ax,ax
    76ad:	66 90                	xchg   ax,ax
    76af:	66 90                	xchg   ax,ax
    76b1:	66 90                	xchg   ax,ax
    76b3:	66 90                	xchg   ax,ax
    76b5:	66 90                	xchg   ax,ax
    76b7:	66 90                	xchg   ax,ax
    76b9:	66 90                	xchg   ax,ax
    76bb:	66 90                	xchg   ax,ax
    76bd:	66 90                	xchg   ax,ax
    76bf:	66 90                	xchg   ax,ax
    76c1:	66 90                	xchg   ax,ax
    76c3:	66 90                	xchg   ax,ax
    76c5:	66 90                	xchg   ax,ax
    76c7:	66 90                	xchg   ax,ax
    76c9:	66 90                	xchg   ax,ax
    76cb:	66 90                	xchg   ax,ax
    76cd:	66 90                	xchg   ax,ax
    76cf:	66 90                	xchg   ax,ax
    76d1:	66 90                	xchg   ax,ax
    76d3:	66 90                	xchg   ax,ax
    76d5:	66 90                	xchg   ax,ax
    76d7:	66 90                	xchg   ax,ax
    76d9:	66 90                	xchg   ax,ax
    76db:	66 90                	xchg   ax,ax
    76dd:	66 90                	xchg   ax,ax
    76df:	66 90                	xchg   ax,ax
    76e1:	66 90                	xchg   ax,ax
    76e3:	66 90                	xchg   ax,ax
    76e5:	66 90                	xchg   ax,ax
    76e7:	66 90                	xchg   ax,ax
    76e9:	66 90                	xchg   ax,ax
    76eb:	66 90                	xchg   ax,ax
    76ed:	66 90                	xchg   ax,ax
    76ef:	66 90                	xchg   ax,ax
    76f1:	66 90                	xchg   ax,ax
    76f3:	66 90                	xchg   ax,ax
    76f5:	66 90                	xchg   ax,ax
    76f7:	66 90                	xchg   ax,ax
    76f9:	66 90                	xchg   ax,ax
    76fb:	66 90                	xchg   ax,ax
    76fd:	66 90                	xchg   ax,ax
    76ff:	66 90                	xchg   ax,ax
    7701:	66 90                	xchg   ax,ax
    7703:	66 90                	xchg   ax,ax
    7705:	66 90                	xchg   ax,ax
    7707:	66 90                	xchg   ax,ax
    7709:	66 90                	xchg   ax,ax
    770b:	66 90                	xchg   ax,ax
    770d:	66 90                	xchg   ax,ax
    770f:	66 90                	xchg   ax,ax
    7711:	66 90                	xchg   ax,ax
    7713:	66 90                	xchg   ax,ax
    7715:	66 90                	xchg   ax,ax
    7717:	66 90                	xchg   ax,ax
    7719:	66 90                	xchg   ax,ax
    771b:	66 90                	xchg   ax,ax
    771d:	66 90                	xchg   ax,ax
    771f:	66 90                	xchg   ax,ax
    7721:	66 90                	xchg   ax,ax
    7723:	66 90                	xchg   ax,ax
    7725:	66 90                	xchg   ax,ax
    7727:	66 90                	xchg   ax,ax
    7729:	66 90                	xchg   ax,ax
    772b:	66 90                	xchg   ax,ax
    772d:	66 90                	xchg   ax,ax
    772f:	66 90                	xchg   ax,ax
    7731:	66 90                	xchg   ax,ax
    7733:	66 90                	xchg   ax,ax
    7735:	66 90                	xchg   ax,ax
    7737:	66 90                	xchg   ax,ax
    7739:	66 90                	xchg   ax,ax
    773b:	66 90                	xchg   ax,ax
    773d:	66 90                	xchg   ax,ax
    773f:	66 90                	xchg   ax,ax
    7741:	66 90                	xchg   ax,ax
    7743:	66 90                	xchg   ax,ax
    7745:	66 90                	xchg   ax,ax
    7747:	66 90                	xchg   ax,ax
    7749:	66 90                	xchg   ax,ax
    774b:	66 90                	xchg   ax,ax
    774d:	66 90                	xchg   ax,ax
    774f:	66 90                	xchg   ax,ax
    7751:	66 90                	xchg   ax,ax
    7753:	66 90                	xchg   ax,ax
    7755:	66 90                	xchg   ax,ax
    7757:	66 90                	xchg   ax,ax
    7759:	66 90                	xchg   ax,ax
    775b:	66 90                	xchg   ax,ax
    775d:	66 90                	xchg   ax,ax
    775f:	66 90                	xchg   ax,ax
    7761:	66 90                	xchg   ax,ax
    7763:	66 90                	xchg   ax,ax
    7765:	66 90                	xchg   ax,ax
    7767:	66 90                	xchg   ax,ax
    7769:	66 90                	xchg   ax,ax
    776b:	66 90                	xchg   ax,ax
    776d:	66 90                	xchg   ax,ax
    776f:	66 90                	xchg   ax,ax
    7771:	66 90                	xchg   ax,ax
    7773:	66 90                	xchg   ax,ax
    7775:	66 90                	xchg   ax,ax
    7777:	66 90                	xchg   ax,ax
    7779:	66 90                	xchg   ax,ax
    777b:	66 90                	xchg   ax,ax
    777d:	66 90                	xchg   ax,ax
    777f:	66 90                	xchg   ax,ax
    7781:	66 90                	xchg   ax,ax
    7783:	66 90                	xchg   ax,ax
    7785:	66 90                	xchg   ax,ax
    7787:	66 90                	xchg   ax,ax
    7789:	66 90                	xchg   ax,ax
    778b:	66 90                	xchg   ax,ax
    778d:	66 90                	xchg   ax,ax
    778f:	66 90                	xchg   ax,ax
    7791:	66 90                	xchg   ax,ax
    7793:	66 90                	xchg   ax,ax
    7795:	66 90                	xchg   ax,ax
    7797:	66 90                	xchg   ax,ax
    7799:	66 90                	xchg   ax,ax
    779b:	66 90                	xchg   ax,ax
    779d:	66 90                	xchg   ax,ax
    779f:	66 90                	xchg   ax,ax
    77a1:	66 90                	xchg   ax,ax
    77a3:	66 90                	xchg   ax,ax
    77a5:	66 90                	xchg   ax,ax
    77a7:	66 90                	xchg   ax,ax
    77a9:	66 90                	xchg   ax,ax
    77ab:	66 90                	xchg   ax,ax
    77ad:	66 90                	xchg   ax,ax
    77af:	66 90                	xchg   ax,ax
    77b1:	66 90                	xchg   ax,ax
    77b3:	66 90                	xchg   ax,ax
    77b5:	66 90                	xchg   ax,ax
    77b7:	66 90                	xchg   ax,ax
    77b9:	66 90                	xchg   ax,ax
    77bb:	66 90                	xchg   ax,ax
    77bd:	66 90                	xchg   ax,ax
    77bf:	66 90                	xchg   ax,ax
    77c1:	66 90                	xchg   ax,ax
    77c3:	66 90                	xchg   ax,ax
    77c5:	66 90                	xchg   ax,ax
    77c7:	66 90                	xchg   ax,ax
    77c9:	66 90                	xchg   ax,ax
    77cb:	66 90                	xchg   ax,ax
    77cd:	66 90                	xchg   ax,ax
    77cf:	66 90                	xchg   ax,ax
    77d1:	66 90                	xchg   ax,ax
    77d3:	66 90                	xchg   ax,ax
    77d5:	66 90                	xchg   ax,ax
    77d7:	66 90                	xchg   ax,ax
    77d9:	66 90                	xchg   ax,ax
    77db:	66 90                	xchg   ax,ax
    77dd:	66 90                	xchg   ax,ax
    77df:	66 90                	xchg   ax,ax
    77e1:	66 90                	xchg   ax,ax
    77e3:	66 90                	xchg   ax,ax
    77e5:	66 90                	xchg   ax,ax
    77e7:	66 90                	xchg   ax,ax
    77e9:	66 90                	xchg   ax,ax
    77eb:	66 90                	xchg   ax,ax
    77ed:	66 90                	xchg   ax,ax
    77ef:	66 90                	xchg   ax,ax
    77f1:	66 90                	xchg   ax,ax
    77f3:	66 90                	xchg   ax,ax
    77f5:	66 90                	xchg   ax,ax
    77f7:	66 90                	xchg   ax,ax
    77f9:	66 90                	xchg   ax,ax
    77fb:	66 90                	xchg   ax,ax
    77fd:	66 90                	xchg   ax,ax
    77ff:	66 90                	xchg   ax,ax
    7801:	66 90                	xchg   ax,ax
    7803:	66 90                	xchg   ax,ax
    7805:	66 90                	xchg   ax,ax
    7807:	66 90                	xchg   ax,ax
    7809:	66 90                	xchg   ax,ax
    780b:	66 90                	xchg   ax,ax
    780d:	66 90                	xchg   ax,ax
    780f:	66 90                	xchg   ax,ax
    7811:	66 90                	xchg   ax,ax
    7813:	66 90                	xchg   ax,ax
    7815:	66 90                	xchg   ax,ax
    7817:	66 90                	xchg   ax,ax
    7819:	66 90                	xchg   ax,ax
    781b:	66 90                	xchg   ax,ax
    781d:	66 90                	xchg   ax,ax
    781f:	66 90                	xchg   ax,ax
    7821:	66 90                	xchg   ax,ax
    7823:	66 90                	xchg   ax,ax
    7825:	66 90                	xchg   ax,ax
    7827:	66 90                	xchg   ax,ax
    7829:	66 90                	xchg   ax,ax
    782b:	66 90                	xchg   ax,ax
    782d:	66 90                	xchg   ax,ax
    782f:	66 90                	xchg   ax,ax
    7831:	66 90                	xchg   ax,ax
    7833:	66 90                	xchg   ax,ax
    7835:	66 90                	xchg   ax,ax
    7837:	66 90                	xchg   ax,ax
    7839:	66 90                	xchg   ax,ax
    783b:	66 90                	xchg   ax,ax
    783d:	66 90                	xchg   ax,ax
    783f:	66 90                	xchg   ax,ax
    7841:	66 90                	xchg   ax,ax
    7843:	66 90                	xchg   ax,ax
    7845:	66 90                	xchg   ax,ax
    7847:	66 90                	xchg   ax,ax
    7849:	66 90                	xchg   ax,ax
    784b:	66 90                	xchg   ax,ax
    784d:	66 90                	xchg   ax,ax
    784f:	66 90                	xchg   ax,ax
    7851:	66 90                	xchg   ax,ax
    7853:	66 90                	xchg   ax,ax
    7855:	66 90                	xchg   ax,ax
    7857:	66 90                	xchg   ax,ax
    7859:	66 90                	xchg   ax,ax
    785b:	66 90                	xchg   ax,ax
    785d:	66 90                	xchg   ax,ax
    785f:	66 90                	xchg   ax,ax
    7861:	66 90                	xchg   ax,ax
    7863:	66 90                	xchg   ax,ax
    7865:	66 90                	xchg   ax,ax
    7867:	66 90                	xchg   ax,ax
    7869:	66 90                	xchg   ax,ax
    786b:	66 90                	xchg   ax,ax
    786d:	66 90                	xchg   ax,ax
    786f:	66 90                	xchg   ax,ax
    7871:	66 90                	xchg   ax,ax
    7873:	66 90                	xchg   ax,ax
    7875:	66 90                	xchg   ax,ax
    7877:	66 90                	xchg   ax,ax
    7879:	66 90                	xchg   ax,ax
    787b:	66 90                	xchg   ax,ax
    787d:	66 90                	xchg   ax,ax
    787f:	66 90                	xchg   ax,ax
    7881:	66 90                	xchg   ax,ax
    7883:	66 90                	xchg   ax,ax
    7885:	66 90                	xchg   ax,ax
    7887:	66 90                	xchg   ax,ax
    7889:	66 90                	xchg   ax,ax
    788b:	66 90                	xchg   ax,ax
    788d:	66 90                	xchg   ax,ax
    788f:	66 90                	xchg   ax,ax
    7891:	66 90                	xchg   ax,ax
    7893:	66 90                	xchg   ax,ax
    7895:	66 90                	xchg   ax,ax
    7897:	66 90                	xchg   ax,ax
    7899:	66 90                	xchg   ax,ax
    789b:	66 90                	xchg   ax,ax
    789d:	66 90                	xchg   ax,ax
    789f:	66 90                	xchg   ax,ax
    78a1:	66 90                	xchg   ax,ax
    78a3:	66 90                	xchg   ax,ax
    78a5:	66 90                	xchg   ax,ax
    78a7:	66 90                	xchg   ax,ax
    78a9:	66 90                	xchg   ax,ax
    78ab:	66 90                	xchg   ax,ax
    78ad:	66 90                	xchg   ax,ax
    78af:	66 90                	xchg   ax,ax
    78b1:	66 90                	xchg   ax,ax
    78b3:	66 90                	xchg   ax,ax
    78b5:	66 90                	xchg   ax,ax
    78b7:	66 90                	xchg   ax,ax
    78b9:	66 90                	xchg   ax,ax
    78bb:	66 90                	xchg   ax,ax
    78bd:	66 90                	xchg   ax,ax
    78bf:	66 90                	xchg   ax,ax
    78c1:	66 90                	xchg   ax,ax
    78c3:	66 90                	xchg   ax,ax
    78c5:	66 90                	xchg   ax,ax
    78c7:	66 90                	xchg   ax,ax
    78c9:	66 90                	xchg   ax,ax
    78cb:	66 90                	xchg   ax,ax
    78cd:	66 90                	xchg   ax,ax
    78cf:	66 90                	xchg   ax,ax
    78d1:	66 90                	xchg   ax,ax
    78d3:	66 90                	xchg   ax,ax
    78d5:	66 90                	xchg   ax,ax
    78d7:	66 90                	xchg   ax,ax
    78d9:	66 90                	xchg   ax,ax
    78db:	66 90                	xchg   ax,ax
    78dd:	66 90                	xchg   ax,ax
    78df:	66 90                	xchg   ax,ax
    78e1:	66 90                	xchg   ax,ax
    78e3:	66 90                	xchg   ax,ax
    78e5:	66 90                	xchg   ax,ax
    78e7:	66 90                	xchg   ax,ax
    78e9:	66 90                	xchg   ax,ax
    78eb:	66 90                	xchg   ax,ax
    78ed:	66 90                	xchg   ax,ax
    78ef:	66 90                	xchg   ax,ax
    78f1:	66 90                	xchg   ax,ax
    78f3:	66 90                	xchg   ax,ax
    78f5:	66 90                	xchg   ax,ax
    78f7:	66 90                	xchg   ax,ax
    78f9:	66 90                	xchg   ax,ax
    78fb:	66 90                	xchg   ax,ax
    78fd:	66 90                	xchg   ax,ax
    78ff:	66 90                	xchg   ax,ax
    7901:	66 90                	xchg   ax,ax
    7903:	66 90                	xchg   ax,ax
    7905:	66 90                	xchg   ax,ax
    7907:	66 90                	xchg   ax,ax
    7909:	66 90                	xchg   ax,ax
    790b:	66 90                	xchg   ax,ax
    790d:	66 90                	xchg   ax,ax
    790f:	66 90                	xchg   ax,ax
    7911:	66 90                	xchg   ax,ax
    7913:	66 90                	xchg   ax,ax
    7915:	66 90                	xchg   ax,ax
    7917:	66 90                	xchg   ax,ax
    7919:	66 90                	xchg   ax,ax
    791b:	66 90                	xchg   ax,ax
    791d:	66 90                	xchg   ax,ax
    791f:	66 90                	xchg   ax,ax
    7921:	66 90                	xchg   ax,ax
    7923:	66 90                	xchg   ax,ax
    7925:	66 90                	xchg   ax,ax
    7927:	66 90                	xchg   ax,ax
    7929:	66 90                	xchg   ax,ax
    792b:	66 90                	xchg   ax,ax
    792d:	66 90                	xchg   ax,ax
    792f:	66 90                	xchg   ax,ax
    7931:	66 90                	xchg   ax,ax
    7933:	66 90                	xchg   ax,ax
    7935:	66 90                	xchg   ax,ax
    7937:	66 90                	xchg   ax,ax
    7939:	66 90                	xchg   ax,ax
    793b:	66 90                	xchg   ax,ax
    793d:	66 90                	xchg   ax,ax
    793f:	66 90                	xchg   ax,ax
    7941:	66 90                	xchg   ax,ax
    7943:	66 90                	xchg   ax,ax
    7945:	66 90                	xchg   ax,ax
    7947:	66 90                	xchg   ax,ax
    7949:	66 90                	xchg   ax,ax
    794b:	66 90                	xchg   ax,ax
    794d:	66 90                	xchg   ax,ax
    794f:	66 90                	xchg   ax,ax
    7951:	66 90                	xchg   ax,ax
    7953:	66 90                	xchg   ax,ax
    7955:	66 90                	xchg   ax,ax
    7957:	66 90                	xchg   ax,ax
    7959:	66 90                	xchg   ax,ax
    795b:	66 90                	xchg   ax,ax
    795d:	66 90                	xchg   ax,ax
    795f:	66 90                	xchg   ax,ax
    7961:	66 90                	xchg   ax,ax
    7963:	66 90                	xchg   ax,ax
    7965:	66 90                	xchg   ax,ax
    7967:	66 90                	xchg   ax,ax
    7969:	66 90                	xchg   ax,ax
    796b:	66 90                	xchg   ax,ax
    796d:	66 90                	xchg   ax,ax
    796f:	66 90                	xchg   ax,ax
    7971:	66 90                	xchg   ax,ax
    7973:	66 90                	xchg   ax,ax
    7975:	66 90                	xchg   ax,ax
    7977:	66 90                	xchg   ax,ax
    7979:	66 90                	xchg   ax,ax
    797b:	66 90                	xchg   ax,ax
    797d:	66 90                	xchg   ax,ax
    797f:	66 90                	xchg   ax,ax
    7981:	66 90                	xchg   ax,ax
    7983:	66 90                	xchg   ax,ax
    7985:	66 90                	xchg   ax,ax
    7987:	66 90                	xchg   ax,ax
    7989:	66 90                	xchg   ax,ax
    798b:	66 90                	xchg   ax,ax
    798d:	66 90                	xchg   ax,ax
    798f:	66 90                	xchg   ax,ax
    7991:	66 90                	xchg   ax,ax
    7993:	66 90                	xchg   ax,ax
    7995:	66 90                	xchg   ax,ax
    7997:	66 90                	xchg   ax,ax
    7999:	66 90                	xchg   ax,ax
    799b:	66 90                	xchg   ax,ax
    799d:	66 90                	xchg   ax,ax
    799f:	66 90                	xchg   ax,ax
    79a1:	66 90                	xchg   ax,ax
    79a3:	66 90                	xchg   ax,ax
    79a5:	66 90                	xchg   ax,ax
    79a7:	66 90                	xchg   ax,ax
    79a9:	66 90                	xchg   ax,ax
    79ab:	66 90                	xchg   ax,ax
    79ad:	66 90                	xchg   ax,ax
    79af:	66 90                	xchg   ax,ax
    79b1:	66 90                	xchg   ax,ax
    79b3:	66 90                	xchg   ax,ax
    79b5:	66 90                	xchg   ax,ax
    79b7:	66 90                	xchg   ax,ax
    79b9:	66 90                	xchg   ax,ax
    79bb:	66 90                	xchg   ax,ax
    79bd:	66 90                	xchg   ax,ax
    79bf:	66 90                	xchg   ax,ax
    79c1:	66 90                	xchg   ax,ax
    79c3:	66 90                	xchg   ax,ax
    79c5:	66 90                	xchg   ax,ax
    79c7:	66 90                	xchg   ax,ax
    79c9:	66 90                	xchg   ax,ax
    79cb:	66 90                	xchg   ax,ax
    79cd:	66 90                	xchg   ax,ax
    79cf:	66 90                	xchg   ax,ax
    79d1:	66 90                	xchg   ax,ax
    79d3:	66 90                	xchg   ax,ax
    79d5:	66 90                	xchg   ax,ax
    79d7:	66 90                	xchg   ax,ax
    79d9:	66 90                	xchg   ax,ax
    79db:	66 90                	xchg   ax,ax
    79dd:	66 90                	xchg   ax,ax
    79df:	66 90                	xchg   ax,ax
    79e1:	66 90                	xchg   ax,ax
    79e3:	66 90                	xchg   ax,ax
    79e5:	66 90                	xchg   ax,ax
    79e7:	66 90                	xchg   ax,ax
    79e9:	66 90                	xchg   ax,ax
    79eb:	66 90                	xchg   ax,ax
    79ed:	66 90                	xchg   ax,ax
    79ef:	66 90                	xchg   ax,ax
    79f1:	66 90                	xchg   ax,ax
    79f3:	66 90                	xchg   ax,ax
    79f5:	66 90                	xchg   ax,ax
    79f7:	66 90                	xchg   ax,ax
    79f9:	66 90                	xchg   ax,ax
    79fb:	66 90                	xchg   ax,ax
    79fd:	66 90                	xchg   ax,ax
    79ff:	66 90                	xchg   ax,ax
    7a01:	66 90                	xchg   ax,ax
    7a03:	66 90                	xchg   ax,ax
    7a05:	66 90                	xchg   ax,ax
    7a07:	66 90                	xchg   ax,ax
    7a09:	66 90                	xchg   ax,ax
    7a0b:	66 90                	xchg   ax,ax
    7a0d:	66 90                	xchg   ax,ax
    7a0f:	66 90                	xchg   ax,ax
    7a11:	66 90                	xchg   ax,ax
    7a13:	66 90                	xchg   ax,ax
    7a15:	66 90                	xchg   ax,ax
    7a17:	66 90                	xchg   ax,ax
    7a19:	66 90                	xchg   ax,ax
    7a1b:	66 90                	xchg   ax,ax
    7a1d:	66 90                	xchg   ax,ax
    7a1f:	66 90                	xchg   ax,ax
    7a21:	66 90                	xchg   ax,ax
    7a23:	66 90                	xchg   ax,ax
    7a25:	66 90                	xchg   ax,ax
    7a27:	66 90                	xchg   ax,ax
    7a29:	66 90                	xchg   ax,ax
    7a2b:	66 90                	xchg   ax,ax
    7a2d:	66 90                	xchg   ax,ax
    7a2f:	66 90                	xchg   ax,ax
    7a31:	66 90                	xchg   ax,ax
    7a33:	66 90                	xchg   ax,ax
    7a35:	66 90                	xchg   ax,ax
    7a37:	66 90                	xchg   ax,ax
    7a39:	66 90                	xchg   ax,ax
    7a3b:	66 90                	xchg   ax,ax
    7a3d:	66 90                	xchg   ax,ax
    7a3f:	66 90                	xchg   ax,ax
    7a41:	66 90                	xchg   ax,ax
    7a43:	66 90                	xchg   ax,ax
    7a45:	66 90                	xchg   ax,ax
    7a47:	66 90                	xchg   ax,ax
    7a49:	66 90                	xchg   ax,ax
    7a4b:	66 90                	xchg   ax,ax
    7a4d:	66 90                	xchg   ax,ax
    7a4f:	66 90                	xchg   ax,ax
    7a51:	66 90                	xchg   ax,ax
    7a53:	66 90                	xchg   ax,ax
    7a55:	66 90                	xchg   ax,ax
    7a57:	66 90                	xchg   ax,ax
    7a59:	66 90                	xchg   ax,ax
    7a5b:	66 90                	xchg   ax,ax
    7a5d:	66 90                	xchg   ax,ax
    7a5f:	66 90                	xchg   ax,ax
    7a61:	66 90                	xchg   ax,ax
    7a63:	66 90                	xchg   ax,ax
    7a65:	66 90                	xchg   ax,ax
    7a67:	66 90                	xchg   ax,ax
    7a69:	66 90                	xchg   ax,ax
    7a6b:	66 90                	xchg   ax,ax
    7a6d:	66 90                	xchg   ax,ax
    7a6f:	66 90                	xchg   ax,ax
    7a71:	66 90                	xchg   ax,ax
    7a73:	66 90                	xchg   ax,ax
    7a75:	66 90                	xchg   ax,ax
    7a77:	66 90                	xchg   ax,ax
    7a79:	66 90                	xchg   ax,ax
    7a7b:	66 90                	xchg   ax,ax
    7a7d:	66 90                	xchg   ax,ax
    7a7f:	66 90                	xchg   ax,ax
    7a81:	66 90                	xchg   ax,ax
    7a83:	66 90                	xchg   ax,ax
    7a85:	66 90                	xchg   ax,ax
    7a87:	66 90                	xchg   ax,ax
    7a89:	66 90                	xchg   ax,ax
    7a8b:	66 90                	xchg   ax,ax
    7a8d:	66 90                	xchg   ax,ax
    7a8f:	66 90                	xchg   ax,ax
    7a91:	66 90                	xchg   ax,ax
    7a93:	66 90                	xchg   ax,ax
    7a95:	66 90                	xchg   ax,ax
    7a97:	66 90                	xchg   ax,ax
    7a99:	66 90                	xchg   ax,ax
    7a9b:	66 90                	xchg   ax,ax
    7a9d:	66 90                	xchg   ax,ax
    7a9f:	66 90                	xchg   ax,ax
    7aa1:	66 90                	xchg   ax,ax
    7aa3:	66 90                	xchg   ax,ax
    7aa5:	66 90                	xchg   ax,ax
    7aa7:	66 90                	xchg   ax,ax
    7aa9:	66 90                	xchg   ax,ax
    7aab:	66 90                	xchg   ax,ax
    7aad:	66 90                	xchg   ax,ax
    7aaf:	66 90                	xchg   ax,ax
    7ab1:	66 90                	xchg   ax,ax
    7ab3:	66 90                	xchg   ax,ax
    7ab5:	66 90                	xchg   ax,ax
    7ab7:	66 90                	xchg   ax,ax
    7ab9:	66 90                	xchg   ax,ax
    7abb:	66 90                	xchg   ax,ax
    7abd:	66 90                	xchg   ax,ax
    7abf:	66 90                	xchg   ax,ax
    7ac1:	66 90                	xchg   ax,ax
    7ac3:	66 90                	xchg   ax,ax
    7ac5:	66 90                	xchg   ax,ax
    7ac7:	66 90                	xchg   ax,ax
    7ac9:	66 90                	xchg   ax,ax
    7acb:	66 90                	xchg   ax,ax
    7acd:	66 90                	xchg   ax,ax
    7acf:	66 90                	xchg   ax,ax
    7ad1:	66 90                	xchg   ax,ax
    7ad3:	66 90                	xchg   ax,ax
    7ad5:	66 90                	xchg   ax,ax
    7ad7:	66 90                	xchg   ax,ax
    7ad9:	66 90                	xchg   ax,ax
    7adb:	66 90                	xchg   ax,ax
    7add:	66 90                	xchg   ax,ax
    7adf:	66 90                	xchg   ax,ax
    7ae1:	66 90                	xchg   ax,ax
    7ae3:	66 90                	xchg   ax,ax
    7ae5:	66 90                	xchg   ax,ax
    7ae7:	66 90                	xchg   ax,ax
    7ae9:	66 90                	xchg   ax,ax
    7aeb:	66 90                	xchg   ax,ax
    7aed:	66 90                	xchg   ax,ax
    7aef:	66 90                	xchg   ax,ax
    7af1:	66 90                	xchg   ax,ax
    7af3:	66 90                	xchg   ax,ax
    7af5:	66 90                	xchg   ax,ax
    7af7:	66 90                	xchg   ax,ax
    7af9:	66 90                	xchg   ax,ax
    7afb:	66 90                	xchg   ax,ax
    7afd:	66 90                	xchg   ax,ax
    7aff:	66 90                	xchg   ax,ax
    7b01:	66 90                	xchg   ax,ax
    7b03:	66 90                	xchg   ax,ax
    7b05:	66 90                	xchg   ax,ax
    7b07:	66 90                	xchg   ax,ax
    7b09:	66 90                	xchg   ax,ax
    7b0b:	66 90                	xchg   ax,ax
    7b0d:	66 90                	xchg   ax,ax
    7b0f:	66 90                	xchg   ax,ax
    7b11:	66 90                	xchg   ax,ax
    7b13:	66 90                	xchg   ax,ax
    7b15:	66 90                	xchg   ax,ax
    7b17:	66 90                	xchg   ax,ax
    7b19:	66 90                	xchg   ax,ax
    7b1b:	66 90                	xchg   ax,ax
    7b1d:	66 90                	xchg   ax,ax
    7b1f:	66 90                	xchg   ax,ax
    7b21:	66 90                	xchg   ax,ax
    7b23:	66 90                	xchg   ax,ax
    7b25:	66 90                	xchg   ax,ax
    7b27:	66 90                	xchg   ax,ax
    7b29:	66 90                	xchg   ax,ax
    7b2b:	66 90                	xchg   ax,ax
    7b2d:	66 90                	xchg   ax,ax
    7b2f:	66 90                	xchg   ax,ax
    7b31:	66 90                	xchg   ax,ax
    7b33:	66 90                	xchg   ax,ax
    7b35:	66 90                	xchg   ax,ax
    7b37:	66 90                	xchg   ax,ax
    7b39:	66 90                	xchg   ax,ax
    7b3b:	66 90                	xchg   ax,ax
    7b3d:	66 90                	xchg   ax,ax
    7b3f:	66 90                	xchg   ax,ax
    7b41:	66 90                	xchg   ax,ax
    7b43:	66 90                	xchg   ax,ax
    7b45:	66 90                	xchg   ax,ax
    7b47:	66 90                	xchg   ax,ax
    7b49:	66 90                	xchg   ax,ax
    7b4b:	66 90                	xchg   ax,ax
    7b4d:	66 90                	xchg   ax,ax
    7b4f:	66 90                	xchg   ax,ax
    7b51:	66 90                	xchg   ax,ax
    7b53:	66 90                	xchg   ax,ax
    7b55:	66 90                	xchg   ax,ax
    7b57:	66 90                	xchg   ax,ax
    7b59:	66 90                	xchg   ax,ax
    7b5b:	66 90                	xchg   ax,ax
    7b5d:	66 90                	xchg   ax,ax
    7b5f:	66 90                	xchg   ax,ax
    7b61:	66 90                	xchg   ax,ax
    7b63:	66 90                	xchg   ax,ax
    7b65:	66 90                	xchg   ax,ax
    7b67:	66 90                	xchg   ax,ax
    7b69:	66 90                	xchg   ax,ax
    7b6b:	66 90                	xchg   ax,ax
    7b6d:	66 90                	xchg   ax,ax
    7b6f:	66 90                	xchg   ax,ax
    7b71:	66 90                	xchg   ax,ax
    7b73:	66 90                	xchg   ax,ax
    7b75:	66 90                	xchg   ax,ax
    7b77:	66 90                	xchg   ax,ax
    7b79:	66 90                	xchg   ax,ax
    7b7b:	66 90                	xchg   ax,ax
    7b7d:	66 90                	xchg   ax,ax
    7b7f:	66 90                	xchg   ax,ax
    7b81:	66 90                	xchg   ax,ax
    7b83:	66 90                	xchg   ax,ax
    7b85:	66 90                	xchg   ax,ax
    7b87:	66 90                	xchg   ax,ax
    7b89:	66 90                	xchg   ax,ax
    7b8b:	66 90                	xchg   ax,ax
    7b8d:	66 90                	xchg   ax,ax
    7b8f:	66 90                	xchg   ax,ax
    7b91:	66 90                	xchg   ax,ax
    7b93:	66 90                	xchg   ax,ax
    7b95:	66 90                	xchg   ax,ax
    7b97:	66 90                	xchg   ax,ax
    7b99:	66 90                	xchg   ax,ax
    7b9b:	66 90                	xchg   ax,ax
    7b9d:	66 90                	xchg   ax,ax
    7b9f:	66 90                	xchg   ax,ax
    7ba1:	66 90                	xchg   ax,ax
    7ba3:	66 90                	xchg   ax,ax
    7ba5:	66 90                	xchg   ax,ax
    7ba7:	66 90                	xchg   ax,ax
    7ba9:	66 90                	xchg   ax,ax
    7bab:	66 90                	xchg   ax,ax
    7bad:	66 90                	xchg   ax,ax
    7baf:	66 90                	xchg   ax,ax
    7bb1:	66 90                	xchg   ax,ax
    7bb3:	66 90                	xchg   ax,ax
    7bb5:	66 90                	xchg   ax,ax
    7bb7:	66 90                	xchg   ax,ax
    7bb9:	66 90                	xchg   ax,ax
    7bbb:	66 90                	xchg   ax,ax
    7bbd:	66 90                	xchg   ax,ax
    7bbf:	66 90                	xchg   ax,ax
    7bc1:	66 90                	xchg   ax,ax
    7bc3:	66 90                	xchg   ax,ax
    7bc5:	66 90                	xchg   ax,ax
    7bc7:	66 90                	xchg   ax,ax
    7bc9:	66 90                	xchg   ax,ax
    7bcb:	66 90                	xchg   ax,ax
    7bcd:	66 90                	xchg   ax,ax
    7bcf:	66 90                	xchg   ax,ax
    7bd1:	66 90                	xchg   ax,ax
    7bd3:	66 90                	xchg   ax,ax
    7bd5:	66 90                	xchg   ax,ax
    7bd7:	66 90                	xchg   ax,ax
    7bd9:	66 90                	xchg   ax,ax
    7bdb:	66 90                	xchg   ax,ax
    7bdd:	66 90                	xchg   ax,ax
    7bdf:	66 90                	xchg   ax,ax
    7be1:	66 90                	xchg   ax,ax
    7be3:	66 90                	xchg   ax,ax
    7be5:	66 90                	xchg   ax,ax
    7be7:	66 90                	xchg   ax,ax
    7be9:	66 90                	xchg   ax,ax
    7beb:	66 90                	xchg   ax,ax
    7bed:	66 90                	xchg   ax,ax
    7bef:	66 90                	xchg   ax,ax
    7bf1:	66 90                	xchg   ax,ax
    7bf3:	66 90                	xchg   ax,ax
    7bf5:	66 90                	xchg   ax,ax
    7bf7:	66 90                	xchg   ax,ax
    7bf9:	66 90                	xchg   ax,ax
    7bfb:	66 90                	xchg   ax,ax
    7bfd:	66 90                	xchg   ax,ax
    7bff:	66 90                	xchg   ax,ax
    7c01:	66 90                	xchg   ax,ax
    7c03:	66 90                	xchg   ax,ax
    7c05:	66 90                	xchg   ax,ax
    7c07:	66 90                	xchg   ax,ax
    7c09:	66 90                	xchg   ax,ax
    7c0b:	66 90                	xchg   ax,ax
    7c0d:	66 90                	xchg   ax,ax
    7c0f:	66 90                	xchg   ax,ax
    7c11:	66 90                	xchg   ax,ax
    7c13:	66 90                	xchg   ax,ax
    7c15:	66 90                	xchg   ax,ax
    7c17:	66 90                	xchg   ax,ax
    7c19:	66 90                	xchg   ax,ax
    7c1b:	66 90                	xchg   ax,ax
    7c1d:	66 90                	xchg   ax,ax
    7c1f:	66 90                	xchg   ax,ax
    7c21:	66 90                	xchg   ax,ax
    7c23:	66 90                	xchg   ax,ax
    7c25:	66 90                	xchg   ax,ax
    7c27:	66 90                	xchg   ax,ax
    7c29:	66 90                	xchg   ax,ax
    7c2b:	66 90                	xchg   ax,ax
    7c2d:	66 90                	xchg   ax,ax
    7c2f:	66 90                	xchg   ax,ax
    7c31:	66 90                	xchg   ax,ax
    7c33:	66 90                	xchg   ax,ax
    7c35:	66 90                	xchg   ax,ax
    7c37:	66 90                	xchg   ax,ax
    7c39:	66 90                	xchg   ax,ax
    7c3b:	66 90                	xchg   ax,ax
    7c3d:	66 90                	xchg   ax,ax
    7c3f:	66 90                	xchg   ax,ax
    7c41:	66 90                	xchg   ax,ax
    7c43:	66 90                	xchg   ax,ax
    7c45:	66 90                	xchg   ax,ax
    7c47:	66 90                	xchg   ax,ax
    7c49:	66 90                	xchg   ax,ax
    7c4b:	66 90                	xchg   ax,ax
    7c4d:	66 90                	xchg   ax,ax
    7c4f:	66 90                	xchg   ax,ax
    7c51:	66 90                	xchg   ax,ax
    7c53:	66 90                	xchg   ax,ax
    7c55:	66 90                	xchg   ax,ax
    7c57:	66 90                	xchg   ax,ax
    7c59:	66 90                	xchg   ax,ax
    7c5b:	66 90                	xchg   ax,ax
    7c5d:	66 90                	xchg   ax,ax
    7c5f:	66 90                	xchg   ax,ax
    7c61:	66 90                	xchg   ax,ax
    7c63:	66 90                	xchg   ax,ax
    7c65:	66 90                	xchg   ax,ax
    7c67:	66 90                	xchg   ax,ax
    7c69:	66 90                	xchg   ax,ax
    7c6b:	66 90                	xchg   ax,ax
    7c6d:	66 90                	xchg   ax,ax
    7c6f:	66 90                	xchg   ax,ax
    7c71:	66 90                	xchg   ax,ax
    7c73:	66 90                	xchg   ax,ax
    7c75:	66 90                	xchg   ax,ax
    7c77:	66 90                	xchg   ax,ax
    7c79:	66 90                	xchg   ax,ax
    7c7b:	66 90                	xchg   ax,ax
    7c7d:	66 90                	xchg   ax,ax
    7c7f:	66 90                	xchg   ax,ax
    7c81:	66 90                	xchg   ax,ax
    7c83:	66 90                	xchg   ax,ax
    7c85:	66 90                	xchg   ax,ax
    7c87:	66 90                	xchg   ax,ax
    7c89:	66 90                	xchg   ax,ax
    7c8b:	66 90                	xchg   ax,ax
    7c8d:	66 90                	xchg   ax,ax
    7c8f:	66 90                	xchg   ax,ax
    7c91:	66 90                	xchg   ax,ax
    7c93:	66 90                	xchg   ax,ax
    7c95:	66 90                	xchg   ax,ax
    7c97:	66 90                	xchg   ax,ax
    7c99:	66 90                	xchg   ax,ax
    7c9b:	66 90                	xchg   ax,ax
    7c9d:	66 90                	xchg   ax,ax
    7c9f:	66 90                	xchg   ax,ax
    7ca1:	66 90                	xchg   ax,ax
    7ca3:	66 90                	xchg   ax,ax
    7ca5:	66 90                	xchg   ax,ax
    7ca7:	66 90                	xchg   ax,ax
    7ca9:	66 90                	xchg   ax,ax
    7cab:	66 90                	xchg   ax,ax
    7cad:	66 90                	xchg   ax,ax
    7caf:	66 90                	xchg   ax,ax
    7cb1:	66 90                	xchg   ax,ax
    7cb3:	66 90                	xchg   ax,ax
    7cb5:	66 90                	xchg   ax,ax
    7cb7:	66 90                	xchg   ax,ax
    7cb9:	66 90                	xchg   ax,ax
    7cbb:	66 90                	xchg   ax,ax
    7cbd:	66 90                	xchg   ax,ax
    7cbf:	66 90                	xchg   ax,ax
    7cc1:	66 90                	xchg   ax,ax
    7cc3:	66 90                	xchg   ax,ax
    7cc5:	66 90                	xchg   ax,ax
    7cc7:	66 90                	xchg   ax,ax
    7cc9:	66 90                	xchg   ax,ax
    7ccb:	66 90                	xchg   ax,ax
    7ccd:	66 90                	xchg   ax,ax
    7ccf:	66 90                	xchg   ax,ax
    7cd1:	66 90                	xchg   ax,ax
    7cd3:	66 90                	xchg   ax,ax
    7cd5:	66 90                	xchg   ax,ax
    7cd7:	66 90                	xchg   ax,ax
    7cd9:	66 90                	xchg   ax,ax
    7cdb:	66 90                	xchg   ax,ax
    7cdd:	66 90                	xchg   ax,ax
    7cdf:	66 90                	xchg   ax,ax
    7ce1:	66 90                	xchg   ax,ax
    7ce3:	66 90                	xchg   ax,ax
    7ce5:	66 90                	xchg   ax,ax
    7ce7:	66 90                	xchg   ax,ax
    7ce9:	66 90                	xchg   ax,ax
    7ceb:	66 90                	xchg   ax,ax
    7ced:	66 90                	xchg   ax,ax
    7cef:	66 90                	xchg   ax,ax
    7cf1:	66 90                	xchg   ax,ax
    7cf3:	66 90                	xchg   ax,ax
    7cf5:	66 90                	xchg   ax,ax
    7cf7:	66 90                	xchg   ax,ax
    7cf9:	66 90                	xchg   ax,ax
    7cfb:	66 90                	xchg   ax,ax
    7cfd:	66 90                	xchg   ax,ax
    7cff:	66 90                	xchg   ax,ax
    7d01:	66 90                	xchg   ax,ax
    7d03:	66 90                	xchg   ax,ax
    7d05:	66 90                	xchg   ax,ax
    7d07:	66 90                	xchg   ax,ax
    7d09:	66 90                	xchg   ax,ax
    7d0b:	66 90                	xchg   ax,ax
    7d0d:	66 90                	xchg   ax,ax
    7d0f:	66 90                	xchg   ax,ax
    7d11:	66 90                	xchg   ax,ax
    7d13:	66 90                	xchg   ax,ax
    7d15:	66 90                	xchg   ax,ax
    7d17:	66 90                	xchg   ax,ax
    7d19:	66 90                	xchg   ax,ax
    7d1b:	66 90                	xchg   ax,ax
    7d1d:	66 90                	xchg   ax,ax
    7d1f:	66 90                	xchg   ax,ax
    7d21:	66 90                	xchg   ax,ax
    7d23:	66 90                	xchg   ax,ax
    7d25:	66 90                	xchg   ax,ax
    7d27:	66 90                	xchg   ax,ax
    7d29:	66 90                	xchg   ax,ax
    7d2b:	66 90                	xchg   ax,ax
    7d2d:	66 90                	xchg   ax,ax
    7d2f:	66 90                	xchg   ax,ax
    7d31:	66 90                	xchg   ax,ax
    7d33:	66 90                	xchg   ax,ax
    7d35:	66 90                	xchg   ax,ax
    7d37:	66 90                	xchg   ax,ax
    7d39:	66 90                	xchg   ax,ax
    7d3b:	66 90                	xchg   ax,ax
    7d3d:	66 90                	xchg   ax,ax
    7d3f:	66 90                	xchg   ax,ax
    7d41:	66 90                	xchg   ax,ax
    7d43:	66 90                	xchg   ax,ax
    7d45:	66 90                	xchg   ax,ax
    7d47:	66 90                	xchg   ax,ax
    7d49:	66 90                	xchg   ax,ax
    7d4b:	66 90                	xchg   ax,ax
    7d4d:	66 90                	xchg   ax,ax
    7d4f:	66 90                	xchg   ax,ax
    7d51:	66 90                	xchg   ax,ax
    7d53:	66 90                	xchg   ax,ax
    7d55:	66 90                	xchg   ax,ax
    7d57:	66 90                	xchg   ax,ax
    7d59:	66 90                	xchg   ax,ax
    7d5b:	66 90                	xchg   ax,ax
    7d5d:	66 90                	xchg   ax,ax
    7d5f:	66 90                	xchg   ax,ax
    7d61:	66 90                	xchg   ax,ax
    7d63:	66 90                	xchg   ax,ax
    7d65:	66 90                	xchg   ax,ax
    7d67:	66 90                	xchg   ax,ax
    7d69:	66 90                	xchg   ax,ax
    7d6b:	66 90                	xchg   ax,ax
    7d6d:	66 90                	xchg   ax,ax
    7d6f:	66 90                	xchg   ax,ax
    7d71:	66 90                	xchg   ax,ax
    7d73:	66 90                	xchg   ax,ax
    7d75:	66 90                	xchg   ax,ax
    7d77:	66 90                	xchg   ax,ax
    7d79:	66 90                	xchg   ax,ax
    7d7b:	66 90                	xchg   ax,ax
    7d7d:	66 90                	xchg   ax,ax
    7d7f:	66 90                	xchg   ax,ax
    7d81:	66 90                	xchg   ax,ax
    7d83:	66 90                	xchg   ax,ax
    7d85:	66 90                	xchg   ax,ax
    7d87:	66 90                	xchg   ax,ax
    7d89:	66 90                	xchg   ax,ax
    7d8b:	66 90                	xchg   ax,ax
    7d8d:	66 90                	xchg   ax,ax
    7d8f:	66 90                	xchg   ax,ax
    7d91:	66 90                	xchg   ax,ax
    7d93:	66 90                	xchg   ax,ax
    7d95:	66 90                	xchg   ax,ax
    7d97:	66 90                	xchg   ax,ax
    7d99:	66 90                	xchg   ax,ax
    7d9b:	66 90                	xchg   ax,ax
    7d9d:	66 90                	xchg   ax,ax
    7d9f:	66 90                	xchg   ax,ax
    7da1:	66 90                	xchg   ax,ax
    7da3:	66 90                	xchg   ax,ax
    7da5:	66 90                	xchg   ax,ax
    7da7:	66 90                	xchg   ax,ax
    7da9:	66 90                	xchg   ax,ax
    7dab:	66 90                	xchg   ax,ax
    7dad:	66 90                	xchg   ax,ax
    7daf:	66 90                	xchg   ax,ax
    7db1:	66 90                	xchg   ax,ax
    7db3:	66 90                	xchg   ax,ax
    7db5:	66 90                	xchg   ax,ax
    7db7:	66 90                	xchg   ax,ax
    7db9:	66 90                	xchg   ax,ax
    7dbb:	66 90                	xchg   ax,ax
    7dbd:	66 90                	xchg   ax,ax
    7dbf:	66 90                	xchg   ax,ax
    7dc1:	66 90                	xchg   ax,ax
    7dc3:	66 90                	xchg   ax,ax
    7dc5:	66 90                	xchg   ax,ax
    7dc7:	66 90                	xchg   ax,ax
    7dc9:	66 90                	xchg   ax,ax
    7dcb:	66 90                	xchg   ax,ax
    7dcd:	66 90                	xchg   ax,ax
    7dcf:	66 90                	xchg   ax,ax
    7dd1:	66 90                	xchg   ax,ax
    7dd3:	66 90                	xchg   ax,ax
    7dd5:	66 90                	xchg   ax,ax
    7dd7:	66 90                	xchg   ax,ax
    7dd9:	66 90                	xchg   ax,ax
    7ddb:	66 90                	xchg   ax,ax
    7ddd:	66 90                	xchg   ax,ax
    7ddf:	66 90                	xchg   ax,ax
    7de1:	66 90                	xchg   ax,ax
    7de3:	66 90                	xchg   ax,ax
    7de5:	66 90                	xchg   ax,ax
    7de7:	66 90                	xchg   ax,ax
    7de9:	66 90                	xchg   ax,ax
    7deb:	66 90                	xchg   ax,ax
    7ded:	66 90                	xchg   ax,ax
    7def:	66 90                	xchg   ax,ax
    7df1:	66 90                	xchg   ax,ax
    7df3:	66 90                	xchg   ax,ax
    7df5:	66 90                	xchg   ax,ax
    7df7:	66 90                	xchg   ax,ax
    7df9:	66 90                	xchg   ax,ax
    7dfb:	66 90                	xchg   ax,ax
    7dfd:	66 90                	xchg   ax,ax
    7dff:	66 90                	xchg   ax,ax
    7e01:	66 90                	xchg   ax,ax
    7e03:	66 90                	xchg   ax,ax
    7e05:	66 90                	xchg   ax,ax
    7e07:	66 90                	xchg   ax,ax
    7e09:	66 90                	xchg   ax,ax
    7e0b:	66 90                	xchg   ax,ax
    7e0d:	66 90                	xchg   ax,ax
    7e0f:	66 90                	xchg   ax,ax
    7e11:	66 90                	xchg   ax,ax
    7e13:	66 90                	xchg   ax,ax
    7e15:	66 90                	xchg   ax,ax
    7e17:	66 90                	xchg   ax,ax
    7e19:	66 90                	xchg   ax,ax
    7e1b:	66 90                	xchg   ax,ax
    7e1d:	66 90                	xchg   ax,ax
    7e1f:	66 90                	xchg   ax,ax
    7e21:	66 90                	xchg   ax,ax
    7e23:	66 90                	xchg   ax,ax
    7e25:	66 90                	xchg   ax,ax
    7e27:	66 90                	xchg   ax,ax
    7e29:	66 90                	xchg   ax,ax
    7e2b:	66 90                	xchg   ax,ax
    7e2d:	66 90                	xchg   ax,ax
    7e2f:	66 90                	xchg   ax,ax
    7e31:	66 90                	xchg   ax,ax
    7e33:	66 90                	xchg   ax,ax
    7e35:	66 90                	xchg   ax,ax
    7e37:	66 90                	xchg   ax,ax
    7e39:	66 90                	xchg   ax,ax
    7e3b:	66 90                	xchg   ax,ax
    7e3d:	66 90                	xchg   ax,ax
    7e3f:	66 90                	xchg   ax,ax
    7e41:	66 90                	xchg   ax,ax
    7e43:	66 90                	xchg   ax,ax
    7e45:	66 90                	xchg   ax,ax
    7e47:	66 90                	xchg   ax,ax
    7e49:	66 90                	xchg   ax,ax
    7e4b:	66 90                	xchg   ax,ax
    7e4d:	66 90                	xchg   ax,ax
    7e4f:	66 90                	xchg   ax,ax
    7e51:	66 90                	xchg   ax,ax
    7e53:	66 90                	xchg   ax,ax
    7e55:	66 90                	xchg   ax,ax
    7e57:	66 90                	xchg   ax,ax
    7e59:	66 90                	xchg   ax,ax
    7e5b:	66 90                	xchg   ax,ax
    7e5d:	66 90                	xchg   ax,ax
    7e5f:	66 90                	xchg   ax,ax
    7e61:	66 90                	xchg   ax,ax
    7e63:	66 90                	xchg   ax,ax
    7e65:	66 90                	xchg   ax,ax
    7e67:	66 90                	xchg   ax,ax
    7e69:	66 90                	xchg   ax,ax
    7e6b:	66 90                	xchg   ax,ax
    7e6d:	66 90                	xchg   ax,ax
    7e6f:	66 90                	xchg   ax,ax
    7e71:	66 90                	xchg   ax,ax
    7e73:	66 90                	xchg   ax,ax
    7e75:	66 90                	xchg   ax,ax
    7e77:	66 90                	xchg   ax,ax
    7e79:	66 90                	xchg   ax,ax
    7e7b:	66 90                	xchg   ax,ax
    7e7d:	66 90                	xchg   ax,ax
    7e7f:	66 90                	xchg   ax,ax
    7e81:	66 90                	xchg   ax,ax
    7e83:	66 90                	xchg   ax,ax
    7e85:	66 90                	xchg   ax,ax
    7e87:	66 90                	xchg   ax,ax
    7e89:	66 90                	xchg   ax,ax
    7e8b:	66 90                	xchg   ax,ax
    7e8d:	66 90                	xchg   ax,ax
    7e8f:	66 90                	xchg   ax,ax
    7e91:	66 90                	xchg   ax,ax
    7e93:	66 90                	xchg   ax,ax
    7e95:	66 90                	xchg   ax,ax
    7e97:	66 90                	xchg   ax,ax
    7e99:	66 90                	xchg   ax,ax
    7e9b:	66 90                	xchg   ax,ax
    7e9d:	66 90                	xchg   ax,ax
    7e9f:	66 90                	xchg   ax,ax
    7ea1:	66 90                	xchg   ax,ax
    7ea3:	66 90                	xchg   ax,ax
    7ea5:	66 90                	xchg   ax,ax
    7ea7:	66 90                	xchg   ax,ax
    7ea9:	66 90                	xchg   ax,ax
    7eab:	66 90                	xchg   ax,ax
    7ead:	66 90                	xchg   ax,ax
    7eaf:	66 90                	xchg   ax,ax
    7eb1:	66 90                	xchg   ax,ax
    7eb3:	66 90                	xchg   ax,ax
    7eb5:	66 90                	xchg   ax,ax
    7eb7:	66 90                	xchg   ax,ax
    7eb9:	66 90                	xchg   ax,ax
    7ebb:	66 90                	xchg   ax,ax
    7ebd:	66 90                	xchg   ax,ax
    7ebf:	66 90                	xchg   ax,ax
    7ec1:	66 90                	xchg   ax,ax
    7ec3:	66 90                	xchg   ax,ax
    7ec5:	66 90                	xchg   ax,ax
    7ec7:	66 90                	xchg   ax,ax
    7ec9:	66 90                	xchg   ax,ax
    7ecb:	66 90                	xchg   ax,ax
    7ecd:	66 90                	xchg   ax,ax
    7ecf:	66 90                	xchg   ax,ax
    7ed1:	66 90                	xchg   ax,ax
    7ed3:	66 90                	xchg   ax,ax
    7ed5:	66 90                	xchg   ax,ax
    7ed7:	66 90                	xchg   ax,ax
    7ed9:	66 90                	xchg   ax,ax
    7edb:	66 90                	xchg   ax,ax
    7edd:	66 90                	xchg   ax,ax
    7edf:	66 90                	xchg   ax,ax
    7ee1:	66 90                	xchg   ax,ax
    7ee3:	66 90                	xchg   ax,ax
    7ee5:	66 90                	xchg   ax,ax
    7ee7:	66 90                	xchg   ax,ax
    7ee9:	66 90                	xchg   ax,ax
    7eeb:	66 90                	xchg   ax,ax
    7eed:	66 90                	xchg   ax,ax
    7eef:	66 90                	xchg   ax,ax
    7ef1:	66 90                	xchg   ax,ax
    7ef3:	66 90                	xchg   ax,ax
    7ef5:	66 90                	xchg   ax,ax
    7ef7:	66 90                	xchg   ax,ax
    7ef9:	66 90                	xchg   ax,ax
    7efb:	66 90                	xchg   ax,ax
    7efd:	66 90                	xchg   ax,ax
    7eff:	66 90                	xchg   ax,ax
    7f01:	66 90                	xchg   ax,ax
    7f03:	66 90                	xchg   ax,ax
    7f05:	66 90                	xchg   ax,ax
    7f07:	66 90                	xchg   ax,ax
    7f09:	66 90                	xchg   ax,ax
    7f0b:	66 90                	xchg   ax,ax
    7f0d:	66 90                	xchg   ax,ax
    7f0f:	66 90                	xchg   ax,ax
    7f11:	66 90                	xchg   ax,ax
    7f13:	66 90                	xchg   ax,ax
    7f15:	66 90                	xchg   ax,ax
    7f17:	66 90                	xchg   ax,ax
    7f19:	66 90                	xchg   ax,ax
    7f1b:	66 90                	xchg   ax,ax
    7f1d:	66 90                	xchg   ax,ax
    7f1f:	66 90                	xchg   ax,ax
    7f21:	66 90                	xchg   ax,ax
    7f23:	66 90                	xchg   ax,ax
    7f25:	66 90                	xchg   ax,ax
    7f27:	66 90                	xchg   ax,ax
    7f29:	66 90                	xchg   ax,ax
    7f2b:	66 90                	xchg   ax,ax
    7f2d:	66 90                	xchg   ax,ax
    7f2f:	66 90                	xchg   ax,ax
    7f31:	66 90                	xchg   ax,ax
    7f33:	66 90                	xchg   ax,ax
    7f35:	66 90                	xchg   ax,ax
    7f37:	66 90                	xchg   ax,ax
    7f39:	66 90                	xchg   ax,ax
    7f3b:	66 90                	xchg   ax,ax
    7f3d:	66 90                	xchg   ax,ax
    7f3f:	66 90                	xchg   ax,ax
    7f41:	66 90                	xchg   ax,ax
    7f43:	66 90                	xchg   ax,ax
    7f45:	66 90                	xchg   ax,ax
    7f47:	66 90                	xchg   ax,ax
    7f49:	66 90                	xchg   ax,ax
    7f4b:	66 90                	xchg   ax,ax
    7f4d:	66 90                	xchg   ax,ax
    7f4f:	66 90                	xchg   ax,ax
    7f51:	66 90                	xchg   ax,ax
    7f53:	66 90                	xchg   ax,ax
    7f55:	66 90                	xchg   ax,ax
    7f57:	66 90                	xchg   ax,ax
    7f59:	66 90                	xchg   ax,ax
    7f5b:	66 90                	xchg   ax,ax
    7f5d:	66 90                	xchg   ax,ax
    7f5f:	66 90                	xchg   ax,ax
    7f61:	66 90                	xchg   ax,ax
    7f63:	66 90                	xchg   ax,ax
    7f65:	66 90                	xchg   ax,ax
    7f67:	66 90                	xchg   ax,ax
    7f69:	66 90                	xchg   ax,ax
    7f6b:	66 90                	xchg   ax,ax
    7f6d:	66 90                	xchg   ax,ax
    7f6f:	66 90                	xchg   ax,ax
    7f71:	66 90                	xchg   ax,ax
    7f73:	66 90                	xchg   ax,ax
    7f75:	66 90                	xchg   ax,ax
    7f77:	66 90                	xchg   ax,ax
    7f79:	66 90                	xchg   ax,ax
    7f7b:	66 90                	xchg   ax,ax
    7f7d:	66 90                	xchg   ax,ax
    7f7f:	66 90                	xchg   ax,ax
    7f81:	66 90                	xchg   ax,ax
    7f83:	66 90                	xchg   ax,ax
    7f85:	66 90                	xchg   ax,ax
    7f87:	66 90                	xchg   ax,ax
    7f89:	66 90                	xchg   ax,ax
    7f8b:	66 90                	xchg   ax,ax
    7f8d:	66 90                	xchg   ax,ax
    7f8f:	66 90                	xchg   ax,ax
    7f91:	66 90                	xchg   ax,ax
    7f93:	66 90                	xchg   ax,ax
    7f95:	66 90                	xchg   ax,ax
    7f97:	66 90                	xchg   ax,ax
    7f99:	66 90                	xchg   ax,ax
    7f9b:	66 90                	xchg   ax,ax
    7f9d:	66 90                	xchg   ax,ax
    7f9f:	66 90                	xchg   ax,ax
    7fa1:	66 90                	xchg   ax,ax
    7fa3:	66 90                	xchg   ax,ax
    7fa5:	66 90                	xchg   ax,ax
    7fa7:	66 90                	xchg   ax,ax
    7fa9:	66 90                	xchg   ax,ax
    7fab:	66 90                	xchg   ax,ax
    7fad:	66 90                	xchg   ax,ax
    7faf:	66 90                	xchg   ax,ax
    7fb1:	66 90                	xchg   ax,ax
    7fb3:	66 90                	xchg   ax,ax
    7fb5:	66 90                	xchg   ax,ax
    7fb7:	66 90                	xchg   ax,ax
    7fb9:	66 90                	xchg   ax,ax
    7fbb:	66 90                	xchg   ax,ax
    7fbd:	66 90                	xchg   ax,ax
    7fbf:	66 90                	xchg   ax,ax
    7fc1:	66 90                	xchg   ax,ax
    7fc3:	66 90                	xchg   ax,ax
    7fc5:	66 90                	xchg   ax,ax
    7fc7:	66 90                	xchg   ax,ax
    7fc9:	66 90                	xchg   ax,ax
    7fcb:	66 90                	xchg   ax,ax
    7fcd:	66 90                	xchg   ax,ax
    7fcf:	66 90                	xchg   ax,ax
    7fd1:	66 90                	xchg   ax,ax
    7fd3:	66 90                	xchg   ax,ax
    7fd5:	66 90                	xchg   ax,ax
    7fd7:	66 90                	xchg   ax,ax
    7fd9:	66 90                	xchg   ax,ax
    7fdb:	66 90                	xchg   ax,ax
    7fdd:	66 90                	xchg   ax,ax
    7fdf:	66 90                	xchg   ax,ax
    7fe1:	66 90                	xchg   ax,ax
    7fe3:	66 90                	xchg   ax,ax
    7fe5:	66 90                	xchg   ax,ax
    7fe7:	66 90                	xchg   ax,ax
    7fe9:	66 90                	xchg   ax,ax
    7feb:	66 90                	xchg   ax,ax
    7fed:	66 90                	xchg   ax,ax
    7fef:	66 90                	xchg   ax,ax
    7ff1:	66 90                	xchg   ax,ax
    7ff3:	66 90                	xchg   ax,ax
    7ff5:	66 90                	xchg   ax,ax
    7ff7:	66 90                	xchg   ax,ax
    7ff9:	66 90                	xchg   ax,ax
    7ffb:	66 90                	xchg   ax,ax
    7ffd:	66 90                	xchg   ax,ax
    7fff:	90                   	nop

00008000 <__irqCallback32>:
    8000:	60                   	pusha  
    8001:	6a 20                	push   0x20
    8003:	e8 fc ff ff ff       	call   8004 <__irqCallback32+0x4>
    8008:	83 c4 04             	add    esp,0x4
    800b:	61                   	popa   
    800c:	cf                   	iret   

0000800d <__irqCallback33>:
    800d:	60                   	pusha  
    800e:	6a 21                	push   0x21
    8010:	e8 fc ff ff ff       	call   8011 <__irqCallback33+0x4>
    8015:	83 c4 04             	add    esp,0x4
    8018:	61                   	popa   
    8019:	cf                   	iret   

0000801a <__irqCallback34>:
    801a:	60                   	pusha  
    801b:	6a 22                	push   0x22
    801d:	e8 fc ff ff ff       	call   801e <__irqCallback34+0x4>
    8022:	83 c4 04             	add    esp,0x4
    8025:	61                   	popa   
    8026:	cf                   	iret   

00008027 <__irqCallback35>:
    8027:	60                   	pusha  
    8028:	6a 23                	push   0x23
    802a:	e8 fc ff ff ff       	call   802b <__irqCallback35+0x4>
    802f:	83 c4 04             	add    esp,0x4
    8032:	61                   	popa   
    8033:	cf                   	iret   

00008034 <__irqCallback36>:
    8034:	60                   	pusha  
    8035:	6a 24                	push   0x24
    8037:	e8 fc ff ff ff       	call   8038 <__irqCallback36+0x4>
    803c:	83 c4 04             	add    esp,0x4
    803f:	61                   	popa   
    8040:	cf                   	iret   

00008041 <__irqCallback37>:
    8041:	60                   	pusha  
    8042:	6a 25                	push   0x25
    8044:	e8 fc ff ff ff       	call   8045 <__irqCallback37+0x4>
    8049:	83 c4 04             	add    esp,0x4
    804c:	61                   	popa   
    804d:	cf                   	iret   

0000804e <__irqCallback38>:
    804e:	60                   	pusha  
    804f:	6a 26                	push   0x26
    8051:	e8 fc ff ff ff       	call   8052 <__irqCallback38+0x4>
    8056:	83 c4 04             	add    esp,0x4
    8059:	61                   	popa   
    805a:	cf                   	iret   

0000805b <__irqCallback39>:
    805b:	60                   	pusha  
    805c:	6a 27                	push   0x27
    805e:	e8 fc ff ff ff       	call   805f <__irqCallback39+0x4>
    8063:	83 c4 04             	add    esp,0x4
    8066:	61                   	popa   
    8067:	cf                   	iret   

00008068 <__irqCallback40>:
    8068:	60                   	pusha  
    8069:	6a 28                	push   0x28
    806b:	e8 fc ff ff ff       	call   806c <__irqCallback40+0x4>
    8070:	83 c4 04             	add    esp,0x4
    8073:	61                   	popa   
    8074:	cf                   	iret   

00008075 <__irqCallback41>:
    8075:	60                   	pusha  
    8076:	6a 29                	push   0x29
    8078:	e8 fc ff ff ff       	call   8079 <__irqCallback41+0x4>
    807d:	83 c4 04             	add    esp,0x4
    8080:	61                   	popa   
    8081:	cf                   	iret   

00008082 <__irqCallback42>:
    8082:	60                   	pusha  
    8083:	6a 2a                	push   0x2a
    8085:	e8 fc ff ff ff       	call   8086 <__irqCallback42+0x4>
    808a:	83 c4 04             	add    esp,0x4
    808d:	61                   	popa   
    808e:	cf                   	iret   

0000808f <__irqCallback43>:
    808f:	60                   	pusha  
    8090:	6a 2b                	push   0x2b
    8092:	e8 fc ff ff ff       	call   8093 <__irqCallback43+0x4>
    8097:	83 c4 04             	add    esp,0x4
    809a:	61                   	popa   
    809b:	cf                   	iret   

0000809c <__irqCallback44>:
    809c:	60                   	pusha  
    809d:	6a 2c                	push   0x2c
    809f:	e8 fc ff ff ff       	call   80a0 <__irqCallback44+0x4>
    80a4:	83 c4 04             	add    esp,0x4
    80a7:	61                   	popa   
    80a8:	cf                   	iret   

000080a9 <__irqCallback45>:
    80a9:	60                   	pusha  
    80aa:	6a 2d                	push   0x2d
    80ac:	e8 fc ff ff ff       	call   80ad <__irqCallback45+0x4>
    80b1:	83 c4 04             	add    esp,0x4
    80b4:	61                   	popa   
    80b5:	cf                   	iret   

000080b6 <__irqCallback46>:
    80b6:	60                   	pusha  
    80b7:	6a 2e                	push   0x2e
    80b9:	e8 fc ff ff ff       	call   80ba <__irqCallback46+0x4>
    80be:	83 c4 04             	add    esp,0x4
    80c1:	61                   	popa   
    80c2:	cf                   	iret   

000080c3 <__irqCallback47>:
    80c3:	60                   	pusha  
    80c4:	6a 2f                	push   0x2f
    80c6:	e8 fc ff ff ff       	call   80c7 <__irqCallback47+0x4>
    80cb:	83 c4 04             	add    esp,0x4
    80ce:	61                   	popa   
    80cf:	cf                   	iret   

000080d0 <__irqCallback48>:
    80d0:	60                   	pusha  
    80d1:	6a 30                	push   0x30
    80d3:	e8 fc ff ff ff       	call   80d4 <__irqCallback48+0x4>
    80d8:	83 c4 04             	add    esp,0x4
    80db:	61                   	popa   
    80dc:	cf                   	iret   

000080dd <__irqCallback49>:
    80dd:	60                   	pusha  
    80de:	6a 31                	push   0x31
    80e0:	e8 fc ff ff ff       	call   80e1 <__irqCallback49+0x4>
    80e5:	83 c4 04             	add    esp,0x4
    80e8:	61                   	popa   
    80e9:	cf                   	iret   

000080ea <__irqCallback50>:
    80ea:	60                   	pusha  
    80eb:	6a 32                	push   0x32
    80ed:	e8 fc ff ff ff       	call   80ee <__irqCallback50+0x4>
    80f2:	83 c4 04             	add    esp,0x4
    80f5:	61                   	popa   
    80f6:	cf                   	iret   

000080f7 <__irqCallback51>:
    80f7:	60                   	pusha  
    80f8:	6a 33                	push   0x33
    80fa:	e8 fc ff ff ff       	call   80fb <__irqCallback51+0x4>
    80ff:	83 c4 04             	add    esp,0x4
    8102:	61                   	popa   
    8103:	cf                   	iret   

00008104 <__irqCallback52>:
    8104:	60                   	pusha  
    8105:	6a 34                	push   0x34
    8107:	e8 fc ff ff ff       	call   8108 <__irqCallback52+0x4>
    810c:	83 c4 04             	add    esp,0x4
    810f:	61                   	popa   
    8110:	cf                   	iret   

00008111 <__irqCallback53>:
    8111:	60                   	pusha  
    8112:	6a 35                	push   0x35
    8114:	e8 fc ff ff ff       	call   8115 <__irqCallback53+0x4>
    8119:	83 c4 04             	add    esp,0x4
    811c:	61                   	popa   
    811d:	cf                   	iret   

0000811e <__irqCallback54>:
    811e:	60                   	pusha  
    811f:	6a 36                	push   0x36
    8121:	e8 fc ff ff ff       	call   8122 <__irqCallback54+0x4>
    8126:	83 c4 04             	add    esp,0x4
    8129:	61                   	popa   
    812a:	cf                   	iret   

0000812b <__irqCallback55>:
    812b:	60                   	pusha  
    812c:	6a 37                	push   0x37
    812e:	e8 fc ff ff ff       	call   812f <__irqCallback55+0x4>
    8133:	83 c4 04             	add    esp,0x4
    8136:	61                   	popa   
    8137:	cf                   	iret   

00008138 <__irqCallback56>:
    8138:	60                   	pusha  
    8139:	6a 38                	push   0x38
    813b:	e8 fc ff ff ff       	call   813c <__irqCallback56+0x4>
    8140:	83 c4 04             	add    esp,0x4
    8143:	61                   	popa   
    8144:	cf                   	iret   

00008145 <__irqCallback57>:
    8145:	60                   	pusha  
    8146:	6a 39                	push   0x39
    8148:	e8 fc ff ff ff       	call   8149 <__irqCallback57+0x4>
    814d:	83 c4 04             	add    esp,0x4
    8150:	61                   	popa   
    8151:	cf                   	iret   

00008152 <__irqCallback58>:
    8152:	60                   	pusha  
    8153:	6a 3a                	push   0x3a
    8155:	e8 fc ff ff ff       	call   8156 <__irqCallback58+0x4>
    815a:	83 c4 04             	add    esp,0x4
    815d:	61                   	popa   
    815e:	cf                   	iret   

0000815f <__irqCallback59>:
    815f:	60                   	pusha  
    8160:	6a 3b                	push   0x3b
    8162:	e8 fc ff ff ff       	call   8163 <__irqCallback59+0x4>
    8167:	83 c4 04             	add    esp,0x4
    816a:	61                   	popa   
    816b:	cf                   	iret   

0000816c <__irqCallback60>:
    816c:	60                   	pusha  
    816d:	6a 3c                	push   0x3c
    816f:	e8 fc ff ff ff       	call   8170 <__irqCallback60+0x4>
    8174:	83 c4 04             	add    esp,0x4
    8177:	61                   	popa   
    8178:	cf                   	iret   

00008179 <__irqCallback61>:
    8179:	60                   	pusha  
    817a:	6a 3d                	push   0x3d
    817c:	e8 fc ff ff ff       	call   817d <__irqCallback61+0x4>
    8181:	83 c4 04             	add    esp,0x4
    8184:	61                   	popa   
    8185:	cf                   	iret   

00008186 <__irqCallback62>:
    8186:	60                   	pusha  
    8187:	6a 3e                	push   0x3e
    8189:	e8 fc ff ff ff       	call   818a <__irqCallback62+0x4>
    818e:	83 c4 04             	add    esp,0x4
    8191:	61                   	popa   
    8192:	cf                   	iret   

00008193 <__irqCallback63>:
    8193:	60                   	pusha  
    8194:	6a 3f                	push   0x3f
    8196:	e8 fc ff ff ff       	call   8197 <__irqCallback63+0x4>
    819b:	83 c4 04             	add    esp,0x4
    819e:	61                   	popa   
    819f:	cf                   	iret   

000081a0 <__irqCallback64>:
    81a0:	60                   	pusha  
    81a1:	6a 40                	push   0x40
    81a3:	e8 fc ff ff ff       	call   81a4 <__irqCallback64+0x4>
    81a8:	83 c4 04             	add    esp,0x4
    81ab:	61                   	popa   
    81ac:	cf                   	iret   

000081ad <__irqCallback65>:
    81ad:	60                   	pusha  
    81ae:	6a 41                	push   0x41
    81b0:	e8 fc ff ff ff       	call   81b1 <__irqCallback65+0x4>
    81b5:	83 c4 04             	add    esp,0x4
    81b8:	61                   	popa   
    81b9:	cf                   	iret   

000081ba <__irqCallback66>:
    81ba:	60                   	pusha  
    81bb:	6a 42                	push   0x42
    81bd:	e8 fc ff ff ff       	call   81be <__irqCallback66+0x4>
    81c2:	83 c4 04             	add    esp,0x4
    81c5:	61                   	popa   
    81c6:	cf                   	iret   

000081c7 <__irqCallback67>:
    81c7:	60                   	pusha  
    81c8:	6a 43                	push   0x43
    81ca:	e8 fc ff ff ff       	call   81cb <__irqCallback67+0x4>
    81cf:	83 c4 04             	add    esp,0x4
    81d2:	61                   	popa   
    81d3:	cf                   	iret   

000081d4 <__irqCallback68>:
    81d4:	60                   	pusha  
    81d5:	6a 44                	push   0x44
    81d7:	e8 fc ff ff ff       	call   81d8 <__irqCallback68+0x4>
    81dc:	83 c4 04             	add    esp,0x4
    81df:	61                   	popa   
    81e0:	cf                   	iret   

000081e1 <__irqCallback69>:
    81e1:	60                   	pusha  
    81e2:	6a 45                	push   0x45
    81e4:	e8 fc ff ff ff       	call   81e5 <__irqCallback69+0x4>
    81e9:	83 c4 04             	add    esp,0x4
    81ec:	61                   	popa   
    81ed:	cf                   	iret   

000081ee <__irqCallback70>:
    81ee:	60                   	pusha  
    81ef:	6a 46                	push   0x46
    81f1:	e8 fc ff ff ff       	call   81f2 <__irqCallback70+0x4>
    81f6:	83 c4 04             	add    esp,0x4
    81f9:	61                   	popa   
    81fa:	cf                   	iret   

000081fb <__irqCallback71>:
    81fb:	60                   	pusha  
    81fc:	6a 47                	push   0x47
    81fe:	e8 fc ff ff ff       	call   81ff <__irqCallback71+0x4>
    8203:	83 c4 04             	add    esp,0x4
    8206:	61                   	popa   
    8207:	cf                   	iret   

00008208 <__irqCallback72>:
    8208:	60                   	pusha  
    8209:	6a 48                	push   0x48
    820b:	e8 fc ff ff ff       	call   820c <__irqCallback72+0x4>
    8210:	83 c4 04             	add    esp,0x4
    8213:	61                   	popa   
    8214:	cf                   	iret   

00008215 <__irqCallback73>:
    8215:	60                   	pusha  
    8216:	6a 49                	push   0x49
    8218:	e8 fc ff ff ff       	call   8219 <__irqCallback73+0x4>
    821d:	83 c4 04             	add    esp,0x4
    8220:	61                   	popa   
    8221:	cf                   	iret   

00008222 <__irqCallback74>:
    8222:	60                   	pusha  
    8223:	6a 4a                	push   0x4a
    8225:	e8 fc ff ff ff       	call   8226 <__irqCallback74+0x4>
    822a:	83 c4 04             	add    esp,0x4
    822d:	61                   	popa   
    822e:	cf                   	iret   

0000822f <__irqCallback75>:
    822f:	60                   	pusha  
    8230:	6a 4b                	push   0x4b
    8232:	e8 fc ff ff ff       	call   8233 <__irqCallback75+0x4>
    8237:	83 c4 04             	add    esp,0x4
    823a:	61                   	popa   
    823b:	cf                   	iret   

0000823c <__irqCallback76>:
    823c:	60                   	pusha  
    823d:	6a 4c                	push   0x4c
    823f:	e8 fc ff ff ff       	call   8240 <__irqCallback76+0x4>
    8244:	83 c4 04             	add    esp,0x4
    8247:	61                   	popa   
    8248:	cf                   	iret   

00008249 <__irqCallback77>:
    8249:	60                   	pusha  
    824a:	6a 4d                	push   0x4d
    824c:	e8 fc ff ff ff       	call   824d <__irqCallback77+0x4>
    8251:	83 c4 04             	add    esp,0x4
    8254:	61                   	popa   
    8255:	cf                   	iret   

00008256 <__irqCallback78>:
    8256:	60                   	pusha  
    8257:	6a 4e                	push   0x4e
    8259:	e8 fc ff ff ff       	call   825a <__irqCallback78+0x4>
    825e:	83 c4 04             	add    esp,0x4
    8261:	61                   	popa   
    8262:	cf                   	iret   

00008263 <__irqCallback79>:
    8263:	60                   	pusha  
    8264:	6a 4f                	push   0x4f
    8266:	e8 fc ff ff ff       	call   8267 <__irqCallback79+0x4>
    826b:	83 c4 04             	add    esp,0x4
    826e:	61                   	popa   
    826f:	cf                   	iret   

00008270 <__irqCallback80>:
    8270:	60                   	pusha  
    8271:	6a 50                	push   0x50
    8273:	e8 fc ff ff ff       	call   8274 <__irqCallback80+0x4>
    8278:	83 c4 04             	add    esp,0x4
    827b:	61                   	popa   
    827c:	cf                   	iret   

0000827d <__irqCallback81>:
    827d:	60                   	pusha  
    827e:	6a 51                	push   0x51
    8280:	e8 fc ff ff ff       	call   8281 <__irqCallback81+0x4>
    8285:	83 c4 04             	add    esp,0x4
    8288:	61                   	popa   
    8289:	cf                   	iret   

0000828a <__irqCallback82>:
    828a:	60                   	pusha  
    828b:	6a 52                	push   0x52
    828d:	e8 fc ff ff ff       	call   828e <__irqCallback82+0x4>
    8292:	83 c4 04             	add    esp,0x4
    8295:	61                   	popa   
    8296:	cf                   	iret   

00008297 <__irqCallback83>:
    8297:	60                   	pusha  
    8298:	6a 53                	push   0x53
    829a:	e8 fc ff ff ff       	call   829b <__irqCallback83+0x4>
    829f:	83 c4 04             	add    esp,0x4
    82a2:	61                   	popa   
    82a3:	cf                   	iret   

000082a4 <__irqCallback84>:
    82a4:	60                   	pusha  
    82a5:	6a 54                	push   0x54
    82a7:	e8 fc ff ff ff       	call   82a8 <__irqCallback84+0x4>
    82ac:	83 c4 04             	add    esp,0x4
    82af:	61                   	popa   
    82b0:	cf                   	iret   

000082b1 <__irqCallback85>:
    82b1:	60                   	pusha  
    82b2:	6a 55                	push   0x55
    82b4:	e8 fc ff ff ff       	call   82b5 <__irqCallback85+0x4>
    82b9:	83 c4 04             	add    esp,0x4
    82bc:	61                   	popa   
    82bd:	cf                   	iret   

000082be <__irqCallback86>:
    82be:	60                   	pusha  
    82bf:	6a 56                	push   0x56
    82c1:	e8 fc ff ff ff       	call   82c2 <__irqCallback86+0x4>
    82c6:	83 c4 04             	add    esp,0x4
    82c9:	61                   	popa   
    82ca:	cf                   	iret   

000082cb <__irqCallback87>:
    82cb:	60                   	pusha  
    82cc:	6a 57                	push   0x57
    82ce:	e8 fc ff ff ff       	call   82cf <__irqCallback87+0x4>
    82d3:	83 c4 04             	add    esp,0x4
    82d6:	61                   	popa   
    82d7:	cf                   	iret   

000082d8 <__irqCallback88>:
    82d8:	60                   	pusha  
    82d9:	6a 58                	push   0x58
    82db:	e8 fc ff ff ff       	call   82dc <__irqCallback88+0x4>
    82e0:	83 c4 04             	add    esp,0x4
    82e3:	61                   	popa   
    82e4:	cf                   	iret   

000082e5 <__irqCallback89>:
    82e5:	60                   	pusha  
    82e6:	6a 59                	push   0x59
    82e8:	e8 fc ff ff ff       	call   82e9 <__irqCallback89+0x4>
    82ed:	83 c4 04             	add    esp,0x4
    82f0:	61                   	popa   
    82f1:	cf                   	iret   

000082f2 <__irqCallback90>:
    82f2:	60                   	pusha  
    82f3:	6a 5a                	push   0x5a
    82f5:	e8 fc ff ff ff       	call   82f6 <__irqCallback90+0x4>
    82fa:	83 c4 04             	add    esp,0x4
    82fd:	61                   	popa   
    82fe:	cf                   	iret   

000082ff <__irqCallback91>:
    82ff:	60                   	pusha  
    8300:	6a 5b                	push   0x5b
    8302:	e8 fc ff ff ff       	call   8303 <__irqCallback91+0x4>
    8307:	83 c4 04             	add    esp,0x4
    830a:	61                   	popa   
    830b:	cf                   	iret   

0000830c <__irqCallback92>:
    830c:	60                   	pusha  
    830d:	6a 5c                	push   0x5c
    830f:	e8 fc ff ff ff       	call   8310 <__irqCallback92+0x4>
    8314:	83 c4 04             	add    esp,0x4
    8317:	61                   	popa   
    8318:	cf                   	iret   

00008319 <__irqCallback93>:
    8319:	60                   	pusha  
    831a:	6a 5d                	push   0x5d
    831c:	e8 fc ff ff ff       	call   831d <__irqCallback93+0x4>
    8321:	83 c4 04             	add    esp,0x4
    8324:	61                   	popa   
    8325:	cf                   	iret   

00008326 <__irqCallback94>:
    8326:	60                   	pusha  
    8327:	6a 5e                	push   0x5e
    8329:	e8 fc ff ff ff       	call   832a <__irqCallback94+0x4>
    832e:	83 c4 04             	add    esp,0x4
    8331:	61                   	popa   
    8332:	cf                   	iret   

00008333 <__irqCallback95>:
    8333:	60                   	pusha  
    8334:	6a 5f                	push   0x5f
    8336:	e8 fc ff ff ff       	call   8337 <__irqCallback95+0x4>
    833b:	83 c4 04             	add    esp,0x4
    833e:	61                   	popa   
    833f:	cf                   	iret   

00008340 <__irqCallback96>:
    8340:	60                   	pusha  
    8341:	6a 60                	push   0x60
    8343:	e8 fc ff ff ff       	call   8344 <__irqCallback96+0x4>
    8348:	83 c4 04             	add    esp,0x4
    834b:	61                   	popa   
    834c:	cf                   	iret   

0000834d <__irqCallback97>:
    834d:	60                   	pusha  
    834e:	6a 61                	push   0x61
    8350:	e8 fc ff ff ff       	call   8351 <__irqCallback97+0x4>
    8355:	83 c4 04             	add    esp,0x4
    8358:	61                   	popa   
    8359:	cf                   	iret   

0000835a <__irqCallback98>:
    835a:	60                   	pusha  
    835b:	6a 62                	push   0x62
    835d:	e8 fc ff ff ff       	call   835e <__irqCallback98+0x4>
    8362:	83 c4 04             	add    esp,0x4
    8365:	61                   	popa   
    8366:	cf                   	iret   

00008367 <__irqCallback99>:
    8367:	60                   	pusha  
    8368:	6a 63                	push   0x63
    836a:	e8 fc ff ff ff       	call   836b <__irqCallback99+0x4>
    836f:	83 c4 04             	add    esp,0x4
    8372:	61                   	popa   
    8373:	cf                   	iret   

00008374 <__irqCallback100>:
    8374:	60                   	pusha  
    8375:	6a 64                	push   0x64
    8377:	e8 fc ff ff ff       	call   8378 <__irqCallback100+0x4>
    837c:	83 c4 04             	add    esp,0x4
    837f:	61                   	popa   
    8380:	cf                   	iret   

00008381 <__irqCallback101>:
    8381:	60                   	pusha  
    8382:	6a 65                	push   0x65
    8384:	e8 fc ff ff ff       	call   8385 <__irqCallback101+0x4>
    8389:	83 c4 04             	add    esp,0x4
    838c:	61                   	popa   
    838d:	cf                   	iret   

0000838e <__irqCallback102>:
    838e:	60                   	pusha  
    838f:	6a 66                	push   0x66
    8391:	e8 fc ff ff ff       	call   8392 <__irqCallback102+0x4>
    8396:	83 c4 04             	add    esp,0x4
    8399:	61                   	popa   
    839a:	cf                   	iret   

0000839b <__irqCallback103>:
    839b:	60                   	pusha  
    839c:	6a 67                	push   0x67
    839e:	e8 fc ff ff ff       	call   839f <__irqCallback103+0x4>
    83a3:	83 c4 04             	add    esp,0x4
    83a6:	61                   	popa   
    83a7:	cf                   	iret   

000083a8 <__irqCallback104>:
    83a8:	60                   	pusha  
    83a9:	6a 68                	push   0x68
    83ab:	e8 fc ff ff ff       	call   83ac <__irqCallback104+0x4>
    83b0:	83 c4 04             	add    esp,0x4
    83b3:	61                   	popa   
    83b4:	cf                   	iret   

000083b5 <__irqCallback105>:
    83b5:	60                   	pusha  
    83b6:	6a 69                	push   0x69
    83b8:	e8 fc ff ff ff       	call   83b9 <__irqCallback105+0x4>
    83bd:	83 c4 04             	add    esp,0x4
    83c0:	61                   	popa   
    83c1:	cf                   	iret   

000083c2 <__irqCallback106>:
    83c2:	60                   	pusha  
    83c3:	6a 6a                	push   0x6a
    83c5:	e8 fc ff ff ff       	call   83c6 <__irqCallback106+0x4>
    83ca:	83 c4 04             	add    esp,0x4
    83cd:	61                   	popa   
    83ce:	cf                   	iret   

000083cf <__irqCallback107>:
    83cf:	60                   	pusha  
    83d0:	6a 6b                	push   0x6b
    83d2:	e8 fc ff ff ff       	call   83d3 <__irqCallback107+0x4>
    83d7:	83 c4 04             	add    esp,0x4
    83da:	61                   	popa   
    83db:	cf                   	iret   

000083dc <__irqCallback108>:
    83dc:	60                   	pusha  
    83dd:	6a 6c                	push   0x6c
    83df:	e8 fc ff ff ff       	call   83e0 <__irqCallback108+0x4>
    83e4:	83 c4 04             	add    esp,0x4
    83e7:	61                   	popa   
    83e8:	cf                   	iret   

000083e9 <__irqCallback109>:
    83e9:	60                   	pusha  
    83ea:	6a 6d                	push   0x6d
    83ec:	e8 fc ff ff ff       	call   83ed <__irqCallback109+0x4>
    83f1:	83 c4 04             	add    esp,0x4
    83f4:	61                   	popa   
    83f5:	cf                   	iret   

000083f6 <__irqCallback110>:
    83f6:	60                   	pusha  
    83f7:	6a 6e                	push   0x6e
    83f9:	e8 fc ff ff ff       	call   83fa <__irqCallback110+0x4>
    83fe:	83 c4 04             	add    esp,0x4
    8401:	61                   	popa   
    8402:	cf                   	iret   

00008403 <__irqCallback111>:
    8403:	60                   	pusha  
    8404:	6a 6f                	push   0x6f
    8406:	e8 fc ff ff ff       	call   8407 <__irqCallback111+0x4>
    840b:	83 c4 04             	add    esp,0x4
    840e:	61                   	popa   
    840f:	cf                   	iret   

00008410 <__irqCallback112>:
    8410:	60                   	pusha  
    8411:	6a 70                	push   0x70
    8413:	e8 fc ff ff ff       	call   8414 <__irqCallback112+0x4>
    8418:	83 c4 04             	add    esp,0x4
    841b:	61                   	popa   
    841c:	cf                   	iret   

0000841d <__irqCallback113>:
    841d:	60                   	pusha  
    841e:	6a 71                	push   0x71
    8420:	e8 fc ff ff ff       	call   8421 <__irqCallback113+0x4>
    8425:	83 c4 04             	add    esp,0x4
    8428:	61                   	popa   
    8429:	cf                   	iret   

0000842a <__irqCallback114>:
    842a:	60                   	pusha  
    842b:	6a 72                	push   0x72
    842d:	e8 fc ff ff ff       	call   842e <__irqCallback114+0x4>
    8432:	83 c4 04             	add    esp,0x4
    8435:	61                   	popa   
    8436:	cf                   	iret   

00008437 <__irqCallback115>:
    8437:	60                   	pusha  
    8438:	6a 73                	push   0x73
    843a:	e8 fc ff ff ff       	call   843b <__irqCallback115+0x4>
    843f:	83 c4 04             	add    esp,0x4
    8442:	61                   	popa   
    8443:	cf                   	iret   

00008444 <__irqCallback116>:
    8444:	60                   	pusha  
    8445:	6a 74                	push   0x74
    8447:	e8 fc ff ff ff       	call   8448 <__irqCallback116+0x4>
    844c:	83 c4 04             	add    esp,0x4
    844f:	61                   	popa   
    8450:	cf                   	iret   

00008451 <__irqCallback117>:
    8451:	60                   	pusha  
    8452:	6a 75                	push   0x75
    8454:	e8 fc ff ff ff       	call   8455 <__irqCallback117+0x4>
    8459:	83 c4 04             	add    esp,0x4
    845c:	61                   	popa   
    845d:	cf                   	iret   

0000845e <__irqCallback118>:
    845e:	60                   	pusha  
    845f:	6a 76                	push   0x76
    8461:	e8 fc ff ff ff       	call   8462 <__irqCallback118+0x4>
    8466:	83 c4 04             	add    esp,0x4
    8469:	61                   	popa   
    846a:	cf                   	iret   

0000846b <__irqCallback119>:
    846b:	60                   	pusha  
    846c:	6a 77                	push   0x77
    846e:	e8 fc ff ff ff       	call   846f <__irqCallback119+0x4>
    8473:	83 c4 04             	add    esp,0x4
    8476:	61                   	popa   
    8477:	cf                   	iret   

00008478 <__irqCallback120>:
    8478:	60                   	pusha  
    8479:	6a 78                	push   0x78
    847b:	e8 fc ff ff ff       	call   847c <__irqCallback120+0x4>
    8480:	83 c4 04             	add    esp,0x4
    8483:	61                   	popa   
    8484:	cf                   	iret   

00008485 <__irqCallback121>:
    8485:	60                   	pusha  
    8486:	6a 79                	push   0x79
    8488:	e8 fc ff ff ff       	call   8489 <__irqCallback121+0x4>
    848d:	83 c4 04             	add    esp,0x4
    8490:	61                   	popa   
    8491:	cf                   	iret   

00008492 <__irqCallback122>:
    8492:	60                   	pusha  
    8493:	6a 7a                	push   0x7a
    8495:	e8 fc ff ff ff       	call   8496 <__irqCallback122+0x4>
    849a:	83 c4 04             	add    esp,0x4
    849d:	61                   	popa   
    849e:	cf                   	iret   

0000849f <__irqCallback123>:
    849f:	60                   	pusha  
    84a0:	6a 7b                	push   0x7b
    84a2:	e8 fc ff ff ff       	call   84a3 <__irqCallback123+0x4>
    84a7:	83 c4 04             	add    esp,0x4
    84aa:	61                   	popa   
    84ab:	cf                   	iret   

000084ac <__irqCallback124>:
    84ac:	60                   	pusha  
    84ad:	6a 7c                	push   0x7c
    84af:	e8 fc ff ff ff       	call   84b0 <__irqCallback124+0x4>
    84b4:	83 c4 04             	add    esp,0x4
    84b7:	61                   	popa   
    84b8:	cf                   	iret   

000084b9 <__irqCallback125>:
    84b9:	60                   	pusha  
    84ba:	6a 7d                	push   0x7d
    84bc:	e8 fc ff ff ff       	call   84bd <__irqCallback125+0x4>
    84c1:	83 c4 04             	add    esp,0x4
    84c4:	61                   	popa   
    84c5:	cf                   	iret   

000084c6 <__irqCallback126>:
    84c6:	60                   	pusha  
    84c7:	6a 7e                	push   0x7e
    84c9:	e8 fc ff ff ff       	call   84ca <__irqCallback126+0x4>
    84ce:	83 c4 04             	add    esp,0x4
    84d1:	61                   	popa   
    84d2:	cf                   	iret   

000084d3 <__irqCallback127>:
    84d3:	60                   	pusha  
    84d4:	6a 7f                	push   0x7f
    84d6:	e8 fc ff ff ff       	call   84d7 <__irqCallback127+0x4>
    84db:	83 c4 04             	add    esp,0x4
    84de:	61                   	popa   
    84df:	cf                   	iret   

000084e0 <__irqCallback128>:
    84e0:	60                   	pusha  
    84e1:	68 80 00 00 00       	push   0x80
    84e6:	e8 fc ff ff ff       	call   84e7 <__irqCallback128+0x7>
    84eb:	83 c4 04             	add    esp,0x4
    84ee:	61                   	popa   
    84ef:	cf                   	iret   

000084f0 <__irqCallback129>:
    84f0:	60                   	pusha  
    84f1:	68 81 00 00 00       	push   0x81
    84f6:	e8 fc ff ff ff       	call   84f7 <__irqCallback129+0x7>
    84fb:	83 c4 04             	add    esp,0x4
    84fe:	61                   	popa   
    84ff:	cf                   	iret   

00008500 <__irqCallback130>:
    8500:	60                   	pusha  
    8501:	68 82 00 00 00       	push   0x82
    8506:	e8 fc ff ff ff       	call   8507 <__irqCallback130+0x7>
    850b:	83 c4 04             	add    esp,0x4
    850e:	61                   	popa   
    850f:	cf                   	iret   

00008510 <__irqCallback131>:
    8510:	60                   	pusha  
    8511:	68 83 00 00 00       	push   0x83
    8516:	e8 fc ff ff ff       	call   8517 <__irqCallback131+0x7>
    851b:	83 c4 04             	add    esp,0x4
    851e:	61                   	popa   
    851f:	cf                   	iret   

00008520 <__irqCallback132>:
    8520:	60                   	pusha  
    8521:	68 84 00 00 00       	push   0x84
    8526:	e8 fc ff ff ff       	call   8527 <__irqCallback132+0x7>
    852b:	83 c4 04             	add    esp,0x4
    852e:	61                   	popa   
    852f:	cf                   	iret   

00008530 <__irqCallback133>:
    8530:	60                   	pusha  
    8531:	68 85 00 00 00       	push   0x85
    8536:	e8 fc ff ff ff       	call   8537 <__irqCallback133+0x7>
    853b:	83 c4 04             	add    esp,0x4
    853e:	61                   	popa   
    853f:	cf                   	iret   

00008540 <__irqCallback134>:
    8540:	60                   	pusha  
    8541:	68 86 00 00 00       	push   0x86
    8546:	e8 fc ff ff ff       	call   8547 <__irqCallback134+0x7>
    854b:	83 c4 04             	add    esp,0x4
    854e:	61                   	popa   
    854f:	cf                   	iret   

00008550 <__irqCallback135>:
    8550:	60                   	pusha  
    8551:	68 87 00 00 00       	push   0x87
    8556:	e8 fc ff ff ff       	call   8557 <__irqCallback135+0x7>
    855b:	83 c4 04             	add    esp,0x4
    855e:	61                   	popa   
    855f:	cf                   	iret   

00008560 <__irqCallback136>:
    8560:	60                   	pusha  
    8561:	68 88 00 00 00       	push   0x88
    8566:	e8 fc ff ff ff       	call   8567 <__irqCallback136+0x7>
    856b:	83 c4 04             	add    esp,0x4
    856e:	61                   	popa   
    856f:	cf                   	iret   

00008570 <__irqCallback137>:
    8570:	60                   	pusha  
    8571:	68 89 00 00 00       	push   0x89
    8576:	e8 fc ff ff ff       	call   8577 <__irqCallback137+0x7>
    857b:	83 c4 04             	add    esp,0x4
    857e:	61                   	popa   
    857f:	cf                   	iret   

00008580 <__irqCallback138>:
    8580:	60                   	pusha  
    8581:	68 8a 00 00 00       	push   0x8a
    8586:	e8 fc ff ff ff       	call   8587 <__irqCallback138+0x7>
    858b:	83 c4 04             	add    esp,0x4
    858e:	61                   	popa   
    858f:	cf                   	iret   

00008590 <__irqCallback139>:
    8590:	60                   	pusha  
    8591:	68 8b 00 00 00       	push   0x8b
    8596:	e8 fc ff ff ff       	call   8597 <__irqCallback139+0x7>
    859b:	83 c4 04             	add    esp,0x4
    859e:	61                   	popa   
    859f:	cf                   	iret   

000085a0 <__irqCallback140>:
    85a0:	60                   	pusha  
    85a1:	68 8c 00 00 00       	push   0x8c
    85a6:	e8 fc ff ff ff       	call   85a7 <__irqCallback140+0x7>
    85ab:	83 c4 04             	add    esp,0x4
    85ae:	61                   	popa   
    85af:	cf                   	iret   

000085b0 <__irqCallback141>:
    85b0:	60                   	pusha  
    85b1:	68 8d 00 00 00       	push   0x8d
    85b6:	e8 fc ff ff ff       	call   85b7 <__irqCallback141+0x7>
    85bb:	83 c4 04             	add    esp,0x4
    85be:	61                   	popa   
    85bf:	cf                   	iret   

000085c0 <__irqCallback142>:
    85c0:	60                   	pusha  
    85c1:	68 8e 00 00 00       	push   0x8e
    85c6:	e8 fc ff ff ff       	call   85c7 <__irqCallback142+0x7>
    85cb:	83 c4 04             	add    esp,0x4
    85ce:	61                   	popa   
    85cf:	cf                   	iret   

000085d0 <__irqCallback143>:
    85d0:	60                   	pusha  
    85d1:	68 8f 00 00 00       	push   0x8f
    85d6:	e8 fc ff ff ff       	call   85d7 <__irqCallback143+0x7>
    85db:	83 c4 04             	add    esp,0x4
    85de:	61                   	popa   
    85df:	cf                   	iret   

000085e0 <__irqCallback144>:
    85e0:	60                   	pusha  
    85e1:	68 90 00 00 00       	push   0x90
    85e6:	e8 fc ff ff ff       	call   85e7 <__irqCallback144+0x7>
    85eb:	83 c4 04             	add    esp,0x4
    85ee:	61                   	popa   
    85ef:	cf                   	iret   

000085f0 <__irqCallback145>:
    85f0:	60                   	pusha  
    85f1:	68 91 00 00 00       	push   0x91
    85f6:	e8 fc ff ff ff       	call   85f7 <__irqCallback145+0x7>
    85fb:	83 c4 04             	add    esp,0x4
    85fe:	61                   	popa   
    85ff:	cf                   	iret   

00008600 <__irqCallback146>:
    8600:	60                   	pusha  
    8601:	68 92 00 00 00       	push   0x92
    8606:	e8 fc ff ff ff       	call   8607 <__irqCallback146+0x7>
    860b:	83 c4 04             	add    esp,0x4
    860e:	61                   	popa   
    860f:	cf                   	iret   

00008610 <__irqCallback147>:
    8610:	60                   	pusha  
    8611:	68 93 00 00 00       	push   0x93
    8616:	e8 fc ff ff ff       	call   8617 <__irqCallback147+0x7>
    861b:	83 c4 04             	add    esp,0x4
    861e:	61                   	popa   
    861f:	cf                   	iret   

00008620 <__irqCallback148>:
    8620:	60                   	pusha  
    8621:	68 94 00 00 00       	push   0x94
    8626:	e8 fc ff ff ff       	call   8627 <__irqCallback148+0x7>
    862b:	83 c4 04             	add    esp,0x4
    862e:	61                   	popa   
    862f:	cf                   	iret   

00008630 <__irqCallback149>:
    8630:	60                   	pusha  
    8631:	68 95 00 00 00       	push   0x95
    8636:	e8 fc ff ff ff       	call   8637 <__irqCallback149+0x7>
    863b:	83 c4 04             	add    esp,0x4
    863e:	61                   	popa   
    863f:	cf                   	iret   

00008640 <__irqCallback150>:
    8640:	60                   	pusha  
    8641:	68 96 00 00 00       	push   0x96
    8646:	e8 fc ff ff ff       	call   8647 <__irqCallback150+0x7>
    864b:	83 c4 04             	add    esp,0x4
    864e:	61                   	popa   
    864f:	cf                   	iret   

00008650 <__irqCallback151>:
    8650:	60                   	pusha  
    8651:	68 97 00 00 00       	push   0x97
    8656:	e8 fc ff ff ff       	call   8657 <__irqCallback151+0x7>
    865b:	83 c4 04             	add    esp,0x4
    865e:	61                   	popa   
    865f:	cf                   	iret   

00008660 <__irqCallback152>:
    8660:	60                   	pusha  
    8661:	68 98 00 00 00       	push   0x98
    8666:	e8 fc ff ff ff       	call   8667 <__irqCallback152+0x7>
    866b:	83 c4 04             	add    esp,0x4
    866e:	61                   	popa   
    866f:	cf                   	iret   

00008670 <__irqCallback153>:
    8670:	60                   	pusha  
    8671:	68 99 00 00 00       	push   0x99
    8676:	e8 fc ff ff ff       	call   8677 <__irqCallback153+0x7>
    867b:	83 c4 04             	add    esp,0x4
    867e:	61                   	popa   
    867f:	cf                   	iret   

00008680 <__irqCallback154>:
    8680:	60                   	pusha  
    8681:	68 9a 00 00 00       	push   0x9a
    8686:	e8 fc ff ff ff       	call   8687 <__irqCallback154+0x7>
    868b:	83 c4 04             	add    esp,0x4
    868e:	61                   	popa   
    868f:	cf                   	iret   

00008690 <__irqCallback155>:
    8690:	60                   	pusha  
    8691:	68 9b 00 00 00       	push   0x9b
    8696:	e8 fc ff ff ff       	call   8697 <__irqCallback155+0x7>
    869b:	83 c4 04             	add    esp,0x4
    869e:	61                   	popa   
    869f:	cf                   	iret   

000086a0 <__irqCallback156>:
    86a0:	60                   	pusha  
    86a1:	68 9c 00 00 00       	push   0x9c
    86a6:	e8 fc ff ff ff       	call   86a7 <__irqCallback156+0x7>
    86ab:	83 c4 04             	add    esp,0x4
    86ae:	61                   	popa   
    86af:	cf                   	iret   

000086b0 <__irqCallback157>:
    86b0:	60                   	pusha  
    86b1:	68 9d 00 00 00       	push   0x9d
    86b6:	e8 fc ff ff ff       	call   86b7 <__irqCallback157+0x7>
    86bb:	83 c4 04             	add    esp,0x4
    86be:	61                   	popa   
    86bf:	cf                   	iret   

000086c0 <__irqCallback158>:
    86c0:	60                   	pusha  
    86c1:	68 9e 00 00 00       	push   0x9e
    86c6:	e8 fc ff ff ff       	call   86c7 <__irqCallback158+0x7>
    86cb:	83 c4 04             	add    esp,0x4
    86ce:	61                   	popa   
    86cf:	cf                   	iret   

000086d0 <__irqCallback159>:
    86d0:	60                   	pusha  
    86d1:	68 9f 00 00 00       	push   0x9f
    86d6:	e8 fc ff ff ff       	call   86d7 <__irqCallback159+0x7>
    86db:	83 c4 04             	add    esp,0x4
    86de:	61                   	popa   
    86df:	cf                   	iret   

000086e0 <__irqCallback160>:
    86e0:	60                   	pusha  
    86e1:	68 a0 00 00 00       	push   0xa0
    86e6:	e8 fc ff ff ff       	call   86e7 <__irqCallback160+0x7>
    86eb:	83 c4 04             	add    esp,0x4
    86ee:	61                   	popa   
    86ef:	cf                   	iret   

000086f0 <__irqCallback161>:
    86f0:	60                   	pusha  
    86f1:	68 a1 00 00 00       	push   0xa1
    86f6:	e8 fc ff ff ff       	call   86f7 <__irqCallback161+0x7>
    86fb:	83 c4 04             	add    esp,0x4
    86fe:	61                   	popa   
    86ff:	cf                   	iret   

00008700 <__irqCallback162>:
    8700:	60                   	pusha  
    8701:	68 a2 00 00 00       	push   0xa2
    8706:	e8 fc ff ff ff       	call   8707 <__irqCallback162+0x7>
    870b:	83 c4 04             	add    esp,0x4
    870e:	61                   	popa   
    870f:	cf                   	iret   

00008710 <__irqCallback163>:
    8710:	60                   	pusha  
    8711:	68 a3 00 00 00       	push   0xa3
    8716:	e8 fc ff ff ff       	call   8717 <__irqCallback163+0x7>
    871b:	83 c4 04             	add    esp,0x4
    871e:	61                   	popa   
    871f:	cf                   	iret   

00008720 <__irqCallback164>:
    8720:	60                   	pusha  
    8721:	68 a4 00 00 00       	push   0xa4
    8726:	e8 fc ff ff ff       	call   8727 <__irqCallback164+0x7>
    872b:	83 c4 04             	add    esp,0x4
    872e:	61                   	popa   
    872f:	cf                   	iret   

00008730 <__irqCallback165>:
    8730:	60                   	pusha  
    8731:	68 a5 00 00 00       	push   0xa5
    8736:	e8 fc ff ff ff       	call   8737 <__irqCallback165+0x7>
    873b:	83 c4 04             	add    esp,0x4
    873e:	61                   	popa   
    873f:	cf                   	iret   

00008740 <__irqCallback166>:
    8740:	60                   	pusha  
    8741:	68 a6 00 00 00       	push   0xa6
    8746:	e8 fc ff ff ff       	call   8747 <__irqCallback166+0x7>
    874b:	83 c4 04             	add    esp,0x4
    874e:	61                   	popa   
    874f:	cf                   	iret   

00008750 <__irqCallback167>:
    8750:	60                   	pusha  
    8751:	68 a7 00 00 00       	push   0xa7
    8756:	e8 fc ff ff ff       	call   8757 <__irqCallback167+0x7>
    875b:	83 c4 04             	add    esp,0x4
    875e:	61                   	popa   
    875f:	cf                   	iret   

00008760 <__irqCallback168>:
    8760:	60                   	pusha  
    8761:	68 a8 00 00 00       	push   0xa8
    8766:	e8 fc ff ff ff       	call   8767 <__irqCallback168+0x7>
    876b:	83 c4 04             	add    esp,0x4
    876e:	61                   	popa   
    876f:	cf                   	iret   

00008770 <__irqCallback169>:
    8770:	60                   	pusha  
    8771:	68 a9 00 00 00       	push   0xa9
    8776:	e8 fc ff ff ff       	call   8777 <__irqCallback169+0x7>
    877b:	83 c4 04             	add    esp,0x4
    877e:	61                   	popa   
    877f:	cf                   	iret   

00008780 <__irqCallback170>:
    8780:	60                   	pusha  
    8781:	68 aa 00 00 00       	push   0xaa
    8786:	e8 fc ff ff ff       	call   8787 <__irqCallback170+0x7>
    878b:	83 c4 04             	add    esp,0x4
    878e:	61                   	popa   
    878f:	cf                   	iret   

00008790 <__irqCallback171>:
    8790:	60                   	pusha  
    8791:	68 ab 00 00 00       	push   0xab
    8796:	e8 fc ff ff ff       	call   8797 <__irqCallback171+0x7>
    879b:	83 c4 04             	add    esp,0x4
    879e:	61                   	popa   
    879f:	cf                   	iret   

000087a0 <__irqCallback172>:
    87a0:	60                   	pusha  
    87a1:	68 ac 00 00 00       	push   0xac
    87a6:	e8 fc ff ff ff       	call   87a7 <__irqCallback172+0x7>
    87ab:	83 c4 04             	add    esp,0x4
    87ae:	61                   	popa   
    87af:	cf                   	iret   

000087b0 <__irqCallback173>:
    87b0:	60                   	pusha  
    87b1:	68 ad 00 00 00       	push   0xad
    87b6:	e8 fc ff ff ff       	call   87b7 <__irqCallback173+0x7>
    87bb:	83 c4 04             	add    esp,0x4
    87be:	61                   	popa   
    87bf:	cf                   	iret   

000087c0 <__irqCallback174>:
    87c0:	60                   	pusha  
    87c1:	68 ae 00 00 00       	push   0xae
    87c6:	e8 fc ff ff ff       	call   87c7 <__irqCallback174+0x7>
    87cb:	83 c4 04             	add    esp,0x4
    87ce:	61                   	popa   
    87cf:	cf                   	iret   

000087d0 <__irqCallback175>:
    87d0:	60                   	pusha  
    87d1:	68 af 00 00 00       	push   0xaf
    87d6:	e8 fc ff ff ff       	call   87d7 <__irqCallback175+0x7>
    87db:	83 c4 04             	add    esp,0x4
    87de:	61                   	popa   
    87df:	cf                   	iret   

000087e0 <__irqCallback176>:
    87e0:	60                   	pusha  
    87e1:	68 b0 00 00 00       	push   0xb0
    87e6:	e8 fc ff ff ff       	call   87e7 <__irqCallback176+0x7>
    87eb:	83 c4 04             	add    esp,0x4
    87ee:	61                   	popa   
    87ef:	cf                   	iret   

000087f0 <__irqCallback177>:
    87f0:	60                   	pusha  
    87f1:	68 b1 00 00 00       	push   0xb1
    87f6:	e8 fc ff ff ff       	call   87f7 <__irqCallback177+0x7>
    87fb:	83 c4 04             	add    esp,0x4
    87fe:	61                   	popa   
    87ff:	cf                   	iret   

00008800 <__irqCallback178>:
    8800:	60                   	pusha  
    8801:	68 b2 00 00 00       	push   0xb2
    8806:	e8 fc ff ff ff       	call   8807 <__irqCallback178+0x7>
    880b:	83 c4 04             	add    esp,0x4
    880e:	61                   	popa   
    880f:	cf                   	iret   

00008810 <__irqCallback179>:
    8810:	60                   	pusha  
    8811:	68 b3 00 00 00       	push   0xb3
    8816:	e8 fc ff ff ff       	call   8817 <__irqCallback179+0x7>
    881b:	83 c4 04             	add    esp,0x4
    881e:	61                   	popa   
    881f:	cf                   	iret   

00008820 <__irqCallback180>:
    8820:	60                   	pusha  
    8821:	68 b4 00 00 00       	push   0xb4
    8826:	e8 fc ff ff ff       	call   8827 <__irqCallback180+0x7>
    882b:	83 c4 04             	add    esp,0x4
    882e:	61                   	popa   
    882f:	cf                   	iret   

00008830 <__irqCallback181>:
    8830:	60                   	pusha  
    8831:	68 b5 00 00 00       	push   0xb5
    8836:	e8 fc ff ff ff       	call   8837 <__irqCallback181+0x7>
    883b:	83 c4 04             	add    esp,0x4
    883e:	61                   	popa   
    883f:	cf                   	iret   

00008840 <__irqCallback182>:
    8840:	60                   	pusha  
    8841:	68 b6 00 00 00       	push   0xb6
    8846:	e8 fc ff ff ff       	call   8847 <__irqCallback182+0x7>
    884b:	83 c4 04             	add    esp,0x4
    884e:	61                   	popa   
    884f:	cf                   	iret   

00008850 <__irqCallback183>:
    8850:	60                   	pusha  
    8851:	68 b7 00 00 00       	push   0xb7
    8856:	e8 fc ff ff ff       	call   8857 <__irqCallback183+0x7>
    885b:	83 c4 04             	add    esp,0x4
    885e:	61                   	popa   
    885f:	cf                   	iret   

00008860 <__irqCallback184>:
    8860:	60                   	pusha  
    8861:	68 b8 00 00 00       	push   0xb8
    8866:	e8 fc ff ff ff       	call   8867 <__irqCallback184+0x7>
    886b:	83 c4 04             	add    esp,0x4
    886e:	61                   	popa   
    886f:	cf                   	iret   

00008870 <__irqCallback185>:
    8870:	60                   	pusha  
    8871:	68 b9 00 00 00       	push   0xb9
    8876:	e8 fc ff ff ff       	call   8877 <__irqCallback185+0x7>
    887b:	83 c4 04             	add    esp,0x4
    887e:	61                   	popa   
    887f:	cf                   	iret   

00008880 <__irqCallback186>:
    8880:	60                   	pusha  
    8881:	68 ba 00 00 00       	push   0xba
    8886:	e8 fc ff ff ff       	call   8887 <__irqCallback186+0x7>
    888b:	83 c4 04             	add    esp,0x4
    888e:	61                   	popa   
    888f:	cf                   	iret   

00008890 <__irqCallback187>:
    8890:	60                   	pusha  
    8891:	68 bb 00 00 00       	push   0xbb
    8896:	e8 fc ff ff ff       	call   8897 <__irqCallback187+0x7>
    889b:	83 c4 04             	add    esp,0x4
    889e:	61                   	popa   
    889f:	cf                   	iret   

000088a0 <__irqCallback188>:
    88a0:	60                   	pusha  
    88a1:	68 bc 00 00 00       	push   0xbc
    88a6:	e8 fc ff ff ff       	call   88a7 <__irqCallback188+0x7>
    88ab:	83 c4 04             	add    esp,0x4
    88ae:	61                   	popa   
    88af:	cf                   	iret   

000088b0 <__irqCallback189>:
    88b0:	60                   	pusha  
    88b1:	68 bd 00 00 00       	push   0xbd
    88b6:	e8 fc ff ff ff       	call   88b7 <__irqCallback189+0x7>
    88bb:	83 c4 04             	add    esp,0x4
    88be:	61                   	popa   
    88bf:	cf                   	iret   

000088c0 <__irqCallback190>:
    88c0:	60                   	pusha  
    88c1:	68 be 00 00 00       	push   0xbe
    88c6:	e8 fc ff ff ff       	call   88c7 <__irqCallback190+0x7>
    88cb:	83 c4 04             	add    esp,0x4
    88ce:	61                   	popa   
    88cf:	cf                   	iret   

000088d0 <__irqCallback191>:
    88d0:	60                   	pusha  
    88d1:	68 bf 00 00 00       	push   0xbf
    88d6:	e8 fc ff ff ff       	call   88d7 <__irqCallback191+0x7>
    88db:	83 c4 04             	add    esp,0x4
    88de:	61                   	popa   
    88df:	cf                   	iret   
    88e0:	c3                   	ret    

000088e1 <ExecuteLGDT>:
    88e1:	50                   	push   eax
    88e2:	8b 44 24 08          	mov    eax,DWORD PTR [esp+0x8]
    88e6:	0f 01 10             	lgdtd  [eax]
    88e9:	66 b8 10 00          	mov    ax,0x10
    88ed:	8e d8                	mov    ds,eax
    88ef:	8e c0                	mov    es,eax
    88f1:	8e e0                	mov    fs,eax
    88f3:	8e e8                	mov    gs,eax
    88f5:	8e d0                	mov    ss,eax
    88f7:	58                   	pop    eax
    88f8:	ea e0 88 00 00 08 00 	jmp    0x8:0x88e0

000088ff <ExecuteLIDT>:
    88ff:	50                   	push   eax
    8900:	8b 44 24 08          	mov    eax,DWORD PTR [esp+0x8]
    8904:	0f 01 18             	lidtd  [eax]
    8907:	fb                   	sti    
    8908:	58                   	pop    eax
    8909:	c3                   	ret    

0000890a <ExecuteLTR>:
    890a:	50                   	push   eax
    890b:	66 b8 28 00          	mov    ax,0x28
    890f:	0f 00 d8             	ltr    ax
    8912:	58                   	pop    eax
    8913:	c3                   	ret    

00008914 <_ZN3HAL8LocalIRQC1Ev>:
    8914:	56                   	push   esi
    8915:	53                   	push   ebx
    8916:	83 ec 10             	sub    esp,0x10
    8919:	e8 d2 c8 ff ff       	call   51f0 <_Z13EnumerateMADTPFvP14MADTEntryLAPICEPFvP15MADTEntryIOAPICEPFvP12MADTEntryISRE+0x9c>
    891e:	81 c3 da 2a 00 00    	add    ebx,0x2ada
    8924:	8b 74 24 1c          	mov    esi,DWORD PTR [esp+0x1c]
    8928:	56                   	push   esi
    8929:	e8 82 bd ff ff       	call   46b0 <_ZN10Executable3IRQC2Ev@plt>
    892e:	8b 83 98 fe ff ff    	mov    eax,DWORD PTR [ebx-0x168]
    8934:	83 c0 08             	add    eax,0x8
    8937:	89 06                	mov    DWORD PTR [esi],eax
    8939:	83 c4 14             	add    esp,0x14
    893c:	5b                   	pop    ebx
    893d:	5e                   	pop    esi
    893e:	c3                   	ret    
    893f:	90                   	nop

00008940 <_ZN3HAL8LocalIRQ4initEm>:
    8940:	57                   	push   edi
    8941:	56                   	push   esi
    8942:	53                   	push   ebx
    8943:	e8 a8 c8 ff ff       	call   51f0 <_Z13EnumerateMADTPFvP14MADTEntryLAPICEPFvP15MADTEntryIOAPICEPFvP12MADTEntryISRE+0x9c>
    8948:	81 c3 b0 2a 00 00    	add    ebx,0x2ab0
    894e:	8b 7c 24 10          	mov    edi,DWORD PTR [esp+0x10]
    8952:	c1 e7 0f             	shl    edi,0xf
    8955:	8d b7 00 60 40 c1    	lea    esi,[edi-0x3ebfa000]
    895b:	81 ef 00 91 bf 3e    	sub    edi,0x3ebf9100
    8961:	8d 76 00             	lea    esi,[esi+0x0]
    8964:	83 ec 0c             	sub    esp,0xc
    8967:	56                   	push   esi
    8968:	e8 a3 bc ff ff       	call   4610 <_ZN3HAL8LocalIRQC1Ev@plt>
    896d:	83 c6 18             	add    esi,0x18
    8970:	83 c4 10             	add    esp,0x10
    8973:	39 fe                	cmp    esi,edi
    8975:	75 ed                	jne    8964 <_ZN3HAL8LocalIRQ4initEm+0x24>
    8977:	5b                   	pop    ebx
    8978:	5e                   	pop    esi
    8979:	5f                   	pop    edi
    897a:	c3                   	ret    
    897b:	90                   	nop

0000897c <_ZN3HAL7ArchCpu20extractBaseFrequencyEv>:
    897c:	55                   	push   ebp
    897d:	57                   	push   edi
    897e:	56                   	push   esi
    897f:	53                   	push   ebx
    8980:	83 ec 1c             	sub    esp,0x1c
    8983:	e8 68 c8 ff ff       	call   51f0 <_Z13EnumerateMADTPFvP14MADTEntryLAPICEPFvP15MADTEntryIOAPICEPFvP12MADTEntryISRE+0x9c>
    8988:	81 c3 70 2a 00 00    	add    ebx,0x2a70
    898e:	8b 44 24 30          	mov    eax,DWORD PTR [esp+0x30]
    8992:	8d 88 fa 0c 00 00    	lea    ecx,[eax+0xcfa]
    8998:	05 be 0c 00 00       	add    eax,0xcbe
    899d:	eb 06                	jmp    89a5 <_ZN3HAL7ArchCpu20extractBaseFrequencyEv+0x29>
    899f:	90                   	nop
    89a0:	49                   	dec    ecx
    89a1:	39 c1                	cmp    ecx,eax
    89a3:	74 36                	je     89db <_ZN3HAL7ArchCpu20extractBaseFrequencyEv+0x5f>
    89a5:	80 39 7a             	cmp    BYTE PTR [ecx],0x7a
    89a8:	75 f6                	jne    89a0 <_ZN3HAL7ArchCpu20extractBaseFrequencyEv+0x24>
    89aa:	80 79 ff 48          	cmp    BYTE PTR [ecx-0x1],0x48
    89ae:	75 f0                	jne    89a0 <_ZN3HAL7ArchCpu20extractBaseFrequencyEv+0x24>
    89b0:	8a 51 fe             	mov    dl,BYTE PTR [ecx-0x2]
    89b3:	80 fa 4d             	cmp    dl,0x4d
    89b6:	0f 84 b1 00 00 00    	je     8a6d <_ZN3HAL7ArchCpu20extractBaseFrequencyEv+0xf1>
    89bc:	80 fa 47             	cmp    dl,0x47
    89bf:	74 24                	je     89e5 <_ZN3HAL7ArchCpu20extractBaseFrequencyEv+0x69>
    89c1:	80 fa 54             	cmp    dl,0x54
    89c4:	75 da                	jne    89a0 <_ZN3HAL7ArchCpu20extractBaseFrequencyEv+0x24>
    89c6:	83 ec 0c             	sub    esp,0xc
    89c9:	8d 83 c4 e7 ff ff    	lea    eax,[ebx-0x183c]
    89cf:	50                   	push   eax
    89d0:	e8 0b ba ff ff       	call   43e0 <DbgLine@plt>
    89d5:	83 c4 10             	add    esp,0x10
    89d8:	f4                   	hlt    
    89d9:	eb fd                	jmp    89d8 <_ZN3HAL7ArchCpu20extractBaseFrequencyEv+0x5c>
    89db:	31 c0                	xor    eax,eax
    89dd:	83 c4 1c             	add    esp,0x1c
    89e0:	5b                   	pop    ebx
    89e1:	5e                   	pop    esi
    89e2:	5f                   	pop    edi
    89e3:	5d                   	pop    ebp
    89e4:	c3                   	ret    
    89e5:	83 e9 03             	sub    ecx,0x3
    89e8:	b8 00 ca 9a 3b       	mov    eax,0x3b9aca00
    89ed:	8a 11                	mov    dl,BYTE PTR [ecx]
    89ef:	80 fa 20             	cmp    dl,0x20
    89f2:	0f 84 88 00 00 00    	je     8a80 <_ZN3HAL7ArchCpu20extractBaseFrequencyEv+0x104>
    89f8:	31 f6                	xor    esi,esi
    89fa:	31 ff                	xor    edi,edi
    89fc:	bd 40 00 00 00       	mov    ebp,0x40
    8a01:	bb 01 00 00 00       	mov    ebx,0x1
    8a06:	89 4c 24 0c          	mov    DWORD PTR [esp+0xc],ecx
    8a0a:	eb 3b                	jmp    8a47 <_ZN3HAL7ArchCpu20extractBaseFrequencyEv+0xcb>
    8a0c:	0f be ca             	movsx  ecx,dl
    8a0f:	83 ea 30             	sub    edx,0x30
    8a12:	80 fa 09             	cmp    dl,0x9
    8a15:	77 c4                	ja     89db <_ZN3HAL7ArchCpu20extractBaseFrequencyEv+0x5f>
    8a17:	89 ca                	mov    edx,ecx
    8a19:	83 ea 30             	sub    edx,0x30
    8a1c:	0f af d3             	imul   edx,ebx
    8a1f:	01 d7                	add    edi,edx
    8a21:	83 fd 40             	cmp    ebp,0x40
    8a24:	75 0c                	jne    8a32 <_ZN3HAL7ArchCpu20extractBaseFrequencyEv+0xb6>
    8a26:	ba cd cc cc cc       	mov    edx,0xcccccccd
    8a2b:	f7 e2                	mul    edx
    8a2d:	89 d0                	mov    eax,edx
    8a2f:	c1 e8 03             	shr    eax,0x3
    8a32:	8d 1c 9b             	lea    ebx,[ebx+ebx*4]
    8a35:	01 db                	add    ebx,ebx
    8a37:	46                   	inc    esi
    8a38:	ff 4c 24 0c          	dec    DWORD PTR [esp+0xc]
    8a3c:	8b 54 24 0c          	mov    edx,DWORD PTR [esp+0xc]
    8a40:	8a 12                	mov    dl,BYTE PTR [edx]
    8a42:	80 fa 20             	cmp    dl,0x20
    8a45:	74 16                	je     8a5d <_ZN3HAL7ArchCpu20extractBaseFrequencyEv+0xe1>
    8a47:	80 fa 2e             	cmp    dl,0x2e
    8a4a:	75 c0                	jne    8a0c <_ZN3HAL7ArchCpu20extractBaseFrequencyEv+0x90>
    8a4c:	89 f5                	mov    ebp,esi
    8a4e:	ff 4c 24 0c          	dec    DWORD PTR [esp+0xc]
    8a52:	8b 54 24 0c          	mov    edx,DWORD PTR [esp+0xc]
    8a56:	8a 12                	mov    dl,BYTE PTR [edx]
    8a58:	80 fa 20             	cmp    dl,0x20
    8a5b:	75 ea                	jne    8a47 <_ZN3HAL7ArchCpu20extractBaseFrequencyEv+0xcb>
    8a5d:	83 fd 40             	cmp    ebp,0x40
    8a60:	74 22                	je     8a84 <_ZN3HAL7ArchCpu20extractBaseFrequencyEv+0x108>
    8a62:	0f af c7             	imul   eax,edi
    8a65:	83 c4 1c             	add    esp,0x1c
    8a68:	5b                   	pop    ebx
    8a69:	5e                   	pop    esi
    8a6a:	5f                   	pop    edi
    8a6b:	5d                   	pop    ebp
    8a6c:	c3                   	ret    
    8a6d:	83 e9 03             	sub    ecx,0x3
    8a70:	b8 40 42 0f 00       	mov    eax,0xf4240
    8a75:	8a 11                	mov    dl,BYTE PTR [ecx]
    8a77:	80 fa 20             	cmp    dl,0x20
    8a7a:	0f 85 78 ff ff ff    	jne    89f8 <_ZN3HAL7ArchCpu20extractBaseFrequencyEv+0x7c>
    8a80:	31 ff                	xor    edi,edi
    8a82:	eb de                	jmp    8a62 <_ZN3HAL7ArchCpu20extractBaseFrequencyEv+0xe6>
    8a84:	85 f6                	test   esi,esi
    8a86:	74 da                	je     8a62 <_ZN3HAL7ArchCpu20extractBaseFrequencyEv+0xe6>
    8a88:	8d 04 80             	lea    eax,[eax+eax*4]
    8a8b:	01 c0                	add    eax,eax
    8a8d:	4e                   	dec    esi
    8a8e:	75 f8                	jne    8a88 <_ZN3HAL7ArchCpu20extractBaseFrequencyEv+0x10c>
    8a90:	eb d0                	jmp    8a62 <_ZN3HAL7ArchCpu20extractBaseFrequencyEv+0xe6>
    8a92:	66 90                	xchg   ax,ax

00008a94 <ConstructTrampoline>:
    8a94:	56                   	push   esi
    8a95:	53                   	push   ebx
    8a96:	83 ec 08             	sub    esp,0x8
    8a99:	e8 52 c7 ff ff       	call   51f0 <_Z13EnumerateMADTPFvP14MADTEntryLAPICEPFvP15MADTEntryIOAPICEPFvP12MADTEntryISRE+0x9c>
    8a9e:	81 c3 5a 29 00 00    	add    ebx,0x295a
    8aa4:	8b b3 64 fd ff ff    	mov    esi,DWORD PTR [ebx-0x29c]
    8aaa:	8b 83 ec ff ff ff    	mov    eax,DWORD PTR [ebx-0x14]
    8ab0:	29 f0                	sub    eax,esi
    8ab2:	50                   	push   eax
    8ab3:	68 00 00 09 c0       	push   0xc0090000
    8ab8:	56                   	push   esi
    8ab9:	e8 12 bb ff ff       	call   45d0 <_Z6memcpyPKvPvm@plt>
    8abe:	8b 83 a4 fd ff ff    	mov    eax,DWORD PTR [ebx-0x25c]
    8ac4:	2d 00 00 f7 3f       	sub    eax,0x3ff70000
    8ac9:	29 f0                	sub    eax,esi
    8acb:	83 c4 10             	add    esp,0x10
    8ace:	66 83 78 18 02       	cmp    WORD PTR [eax+0x18],0x2
    8ad3:	74 17                	je     8aec <ConstructTrampoline+0x58>
    8ad5:	83 ec 0c             	sub    esp,0xc
    8ad8:	8d 83 44 e8 ff ff    	lea    eax,[ebx-0x17bc]
    8ade:	50                   	push   eax
    8adf:	e8 fc b8 ff ff       	call   43e0 <DbgLine@plt>
    8ae4:	83 c4 10             	add    esp,0x10
    8ae7:	eb fe                	jmp    8ae7 <ConstructTrampoline+0x53>
    8ae9:	8d 76 00             	lea    esi,[esi+0x0]
    8aec:	66 c7 40 1a 17 00    	mov    WORD PTR [eax+0x1a],0x17
    8af2:	8d 90 00 00 00 40    	lea    edx,[eax+0x40000000]
    8af8:	89 50 1c             	mov    DWORD PTR [eax+0x1c],edx
    8afb:	8b 83 c4 fd ff ff    	mov    eax,DWORD PTR [ebx-0x23c]
    8b01:	c7 00 90 00 00 00    	mov    DWORD PTR [eax],0x90
    8b07:	b8 00 00 09 c0       	mov    eax,0xc0090000
    8b0c:	5a                   	pop    edx
    8b0d:	5b                   	pop    ebx
    8b0e:	5e                   	pop    esi
    8b0f:	c3                   	ret    

00008b10 <DestructTrampoline>:
    8b10:	c3                   	ret    
    8b11:	8d 76 00             	lea    esi,[esi+0x0]

00008b14 <ConstructProcessor>:
    8b14:	56                   	push   esi
    8b15:	53                   	push   ebx
    8b16:	83 ec 10             	sub    esp,0x10
    8b19:	e8 d2 c6 ff ff       	call   51f0 <_Z13EnumerateMADTPFvP14MADTEntryLAPICEPFvP15MADTEntryIOAPICEPFvP12MADTEntryISRE+0x9c>
    8b1e:	81 c3 da 28 00 00    	add    ebx,0x28da
    8b24:	8b 74 24 1c          	mov    esi,DWORD PTR [esp+0x1c]
    8b28:	8d 86 10 05 00 00    	lea    eax,[esi+0x510]
    8b2e:	89 46 1c             	mov    DWORD PTR [esi+0x1c],eax
    8b31:	8d 86 ac 00 00 00    	lea    eax,[esi+0xac]
    8b37:	89 86 a0 00 00 00    	mov    DWORD PTR [esi+0xa0],eax
    8b3d:	50                   	push   eax
    8b3e:	e8 0d ba ff ff       	call   4550 <_ZN10Executable10RoundRobinC1Ev@plt>
    8b43:	8b 86 a0 00 00 00    	mov    eax,DWORD PTR [esi+0xa0]
    8b49:	89 46 28             	mov    DWORD PTR [esi+0x28],eax
    8b4c:	83 c4 14             	add    esp,0x14
    8b4f:	5b                   	pop    ebx
    8b50:	5e                   	pop    esi
    8b51:	c3                   	ret    
    8b52:	66 90                	xchg   ax,ax

00008b54 <AddProcessorInfo>:
    8b54:	55                   	push   ebp
    8b55:	57                   	push   edi
    8b56:	56                   	push   esi
    8b57:	53                   	push   ebx
    8b58:	83 ec 1c             	sub    esp,0x1c
    8b5b:	e8 90 c6 ff ff       	call   51f0 <_Z13EnumerateMADTPFvP14MADTEntryLAPICEPFvP15MADTEntryIOAPICEPFvP12MADTEntryISRE+0x9c>
    8b60:	81 c3 98 28 00 00    	add    ebx,0x2898
    8b66:	8b 7c 24 30          	mov    edi,DWORD PTR [esp+0x30]
    8b6a:	0f b6 6f 01          	movzx  ebp,BYTE PTR [edi+0x1]
    8b6e:	89 e8                	mov    eax,ebp
    8b70:	c1 e0 0f             	shl    eax,0xf
    8b73:	8d b0 00 00 40 c1    	lea    esi,[eax-0x3ec00000]
    8b79:	89 44 24 0c          	mov    DWORD PTR [esp+0xc],eax
    8b7d:	8b 93 54 ff ff ff    	mov    edx,DWORD PTR [ebx-0xac]
    8b83:	39 2a                	cmp    DWORD PTR [edx],ebp
    8b85:	89 54 24 08          	mov    DWORD PTR [esp+0x8],edx
    8b89:	75 19                	jne    8ba4 <AddProcessorInfo+0x50>
    8b8b:	89 ae f8 00 00 00    	mov    DWORD PTR [esi+0xf8],ebp
    8b91:	0f b6 07             	movzx  eax,BYTE PTR [edi]
    8b94:	89 86 fc 00 00 00    	mov    DWORD PTR [esi+0xfc],eax
    8b9a:	83 c4 1c             	add    esp,0x1c
    8b9d:	5b                   	pop    ebx
    8b9e:	5e                   	pop    esi
    8b9f:	5f                   	pop    edi
    8ba0:	5d                   	pop    ebp
    8ba1:	c3                   	ret    
    8ba2:	66 90                	xchg   ax,ax
    8ba4:	83 ec 0c             	sub    esp,0xc
    8ba7:	6a 00                	push   0x0
    8ba9:	6a 03                	push   0x3
    8bab:	6a 08                	push   0x8
    8bad:	6a 00                	push   0x0
    8baf:	56                   	push   esi
    8bb0:	e8 1b b8 ff ff       	call   43d0 <EnsureUsability@plt>
    8bb5:	83 c4 14             	add    esp,0x14
    8bb8:	6a 00                	push   0x0
    8bba:	6a 03                	push   0x3
    8bbc:	6a 08                	push   0x8
    8bbe:	6a 00                	push   0x0
    8bc0:	8b 44 24 28          	mov    eax,DWORD PTR [esp+0x28]
    8bc4:	2d 00 f0 bf 3e       	sub    eax,0x3ebff000
    8bc9:	50                   	push   eax
    8bca:	e8 01 b8 ff ff       	call   43d0 <EnsureUsability@plt>
    8bcf:	0f b6 47 01          	movzx  eax,BYTE PTR [edi+0x1]
    8bd3:	c1 e0 0f             	shl    eax,0xf
    8bd6:	83 c4 14             	add    esp,0x14
    8bd9:	6a 00                	push   0x0
    8bdb:	6a 03                	push   0x3
    8bdd:	6a 08                	push   0x8
    8bdf:	6a 00                	push   0x0
    8be1:	8d 88 00 60 40 c1    	lea    ecx,[eax-0x3ebfa000]
    8be7:	89 44 24 28          	mov    DWORD PTR [esp+0x28],eax
    8beb:	51                   	push   ecx
    8bec:	e8 df b7 ff ff       	call   43d0 <EnsureUsability@plt>
    8bf1:	83 c4 14             	add    esp,0x14
    8bf4:	6a 00                	push   0x0
    8bf6:	6a 03                	push   0x3
    8bf8:	6a 08                	push   0x8
    8bfa:	6a 00                	push   0x0
    8bfc:	8b 44 24 28          	mov    eax,DWORD PTR [esp+0x28]
    8c00:	2d 00 90 bf 3e       	sub    eax,0x3ebf9000
    8c05:	50                   	push   eax
    8c06:	e8 c5 b7 ff ff       	call   43d0 <EnsureUsability@plt>
    8c0b:	83 c4 14             	add    esp,0x14
    8c0e:	0f b6 47 01          	movzx  eax,BYTE PTR [edi+0x1]
    8c12:	50                   	push   eax
    8c13:	e8 d8 b9 ff ff       	call   45f0 <_ZN3HAL8LocalIRQ4initEm@plt>
    8c18:	83 c4 0c             	add    esp,0xc
    8c1b:	68 10 0e 00 00       	push   0xe10
    8c20:	6a 00                	push   0x0
    8c22:	56                   	push   esi
    8c23:	e8 a8 ba ff ff       	call   46d0 <_Z7memsetfPvmm@plt>
    8c28:	89 ae f8 00 00 00    	mov    DWORD PTR [esi+0xf8],ebp
    8c2e:	0f b6 07             	movzx  eax,BYTE PTR [edi]
    8c31:	89 86 fc 00 00 00    	mov    DWORD PTR [esi+0xfc],eax
    8c37:	83 c4 10             	add    esp,0x10
    8c3a:	8b 54 24 08          	mov    edx,DWORD PTR [esp+0x8]
    8c3e:	3b 2a                	cmp    ebp,DWORD PTR [edx]
    8c40:	0f 84 54 ff ff ff    	je     8b9a <AddProcessorInfo+0x46>
    8c46:	83 ec 0c             	sub    esp,0xc
    8c49:	56                   	push   esi
    8c4a:	e8 11 ba ff ff       	call   4660 <ConstructProcessor@plt>
    8c4f:	83 c4 10             	add    esp,0x10
    8c52:	8b 86 f8 00 00 00    	mov    eax,DWORD PTR [esi+0xf8]
    8c58:	8b 54 24 08          	mov    edx,DWORD PTR [esp+0x8]
    8c5c:	39 02                	cmp    DWORD PTR [edx],eax
    8c5e:	0f 84 36 ff ff ff    	je     8b9a <AddProcessorInfo+0x46>
    8c64:	e8 a7 b8 ff ff       	call   4510 <ConstructTrampoline@plt>
    8c69:	83 ec 08             	sub    esp,0x8
    8c6c:	8b 83 c4 fd ff ff    	mov    eax,DWORD PTR [ebx-0x23c]
    8c72:	0f b6 00             	movzx  eax,BYTE PTR [eax]
    8c75:	50                   	push   eax
    8c76:	0f b6 47 01          	movzx  eax,BYTE PTR [edi+0x1]
    8c7a:	50                   	push   eax
    8c7b:	e8 30 b7 ff ff       	call   43b0 <_ZN4APIC14wakeupSequenceEjh@plt>
    8c80:	58                   	pop    eax
    8c81:	5a                   	pop    edx
    8c82:	6a 00                	push   0x0
    8c84:	6a 0f                	push   0xf
    8c86:	e8 89 cb ff ff       	call   5814 <_ZN4APIC14wakeupSequenceEjh+0xac>
    8c8b:	83 c4 10             	add    esp,0x10
    8c8e:	83 c4 1c             	add    esp,0x1c
    8c91:	5b                   	pop    ebx
    8c92:	5e                   	pop    esi
    8c93:	5f                   	pop    edi
    8c94:	5d                   	pop    ebp
    8c95:	c3                   	ret    
    8c96:	66 90                	xchg   ax,ax

00008c98 <SetupAPs>:
    8c98:	53                   	push   ebx
    8c99:	83 ec 0c             	sub    esp,0xc
    8c9c:	e8 4f c5 ff ff       	call   51f0 <_Z13EnumerateMADTPFvP14MADTEntryLAPICEPFvP15MADTEntryIOAPICEPFvP12MADTEntryISRE+0x9c>
    8ca1:	81 c3 57 27 00 00    	add    ebx,0x2757
    8ca7:	6a 00                	push   0x0
    8ca9:	ff b3 f0 fe ff ff    	push   DWORD PTR [ebx-0x110]
    8caf:	ff b3 fc fc ff ff    	push   DWORD PTR [ebx-0x304]
    8cb5:	e8 e6 b7 ff ff       	call   44a0 <_Z13EnumerateMADTPFvP14MADTEntryLAPICEPFvP15MADTEntryIOAPICEPFvP12MADTEntryISRE@plt>
    8cba:	e8 61 b7 ff ff       	call   4420 <testhpet@plt>
    8cbf:	83 c4 18             	add    esp,0x18
    8cc2:	5b                   	pop    ebx
    8cc3:	c3                   	ret    

00008cc4 <SetupProcessor>:
    8cc4:	56                   	push   esi
    8cc5:	53                   	push   ebx
    8cc6:	50                   	push   eax
    8cc7:	e8 24 c5 ff ff       	call   51f0 <_Z13EnumerateMADTPFvP14MADTEntryLAPICEPFvP15MADTEntryIOAPICEPFvP12MADTEntryISRE+0x9c>
    8ccc:	81 c3 2c 27 00 00    	add    ebx,0x272c
    8cd2:	8b 83 6c fd ff ff    	mov    eax,DWORD PTR [ebx-0x294]
    8cd8:	80 38 00             	cmp    BYTE PTR [eax],0x0
    8cdb:	75 3b                	jne    8d18 <SetupProcessor+0x54>
    8cdd:	8b 83 e4 fd ff ff    	mov    eax,DWORD PTR [ebx-0x21c]
    8ce3:	8b 00                	mov    eax,DWORD PTR [eax]
    8ce5:	8b 70 20             	mov    esi,DWORD PTR [eax+0x20]
    8ce8:	c1 ee 18             	shr    esi,0x18
    8ceb:	81 c6 80 82 01 00    	add    esi,0x18280
    8cf1:	c1 e6 0f             	shl    esi,0xf
    8cf4:	81 c6 f8 00 00 00    	add    esi,0xf8
    8cfa:	83 ec 0c             	sub    esp,0xc
    8cfd:	56                   	push   esi
    8cfe:	e8 dd b8 ff ff       	call   45e0 <SetupGDT@plt>
    8d03:	e8 a8 b8 ff ff       	call   45b0 <SetupIDT@plt>
    8d08:	89 34 24             	mov    DWORD PTR [esp],esi
    8d0b:	e8 60 ba ff ff       	call   4770 <SetupTSS@plt>
    8d10:	89 f0                	mov    eax,esi
    8d12:	83 c4 14             	add    esp,0x14
    8d15:	5b                   	pop    ebx
    8d16:	5e                   	pop    esi
    8d17:	c3                   	ret    
    8d18:	be 00 00 40 c1       	mov    esi,0xc1400000
    8d1d:	eb d5                	jmp    8cf4 <SetupProcessor+0x30>
    8d1f:	90                   	nop

00008d20 <SetupBSP>:
    8d20:	55                   	push   ebp
    8d21:	57                   	push   edi
    8d22:	56                   	push   esi
    8d23:	53                   	push   ebx
    8d24:	83 ec 2c             	sub    esp,0x2c
    8d27:	e8 c4 c4 ff ff       	call   51f0 <_Z13EnumerateMADTPFvP14MADTEntryLAPICEPFvP15MADTEntryIOAPICEPFvP12MADTEntryISRE+0x9c>
    8d2c:	81 c3 cc 26 00 00    	add    ebx,0x26cc
    8d32:	8b bb 6c fd ff ff    	mov    edi,DWORD PTR [ebx-0x294]
    8d38:	80 3f 00             	cmp    BYTE PTR [edi],0x0
    8d3b:	0f 85 4c 03 00 00    	jne    908d <SetupBSP+0x36d>
    8d41:	8b 83 e4 fd ff ff    	mov    eax,DWORD PTR [ebx-0x21c]
    8d47:	8b 10                	mov    edx,DWORD PTR [eax]
    8d49:	8b 42 20             	mov    eax,DWORD PTR [edx+0x20]
    8d4c:	c1 e8 18             	shr    eax,0x18
    8d4f:	8b 8b dc fe ff ff    	mov    ecx,DWORD PTR [ebx-0x124]
    8d55:	89 01                	mov    DWORD PTR [ecx],eax
    8d57:	8b 42 20             	mov    eax,DWORD PTR [edx+0x20]
    8d5a:	c1 e8 18             	shr    eax,0x18
    8d5d:	8b 93 54 ff ff ff    	mov    edx,DWORD PTR [ebx-0xac]
    8d63:	89 02                	mov    DWORD PTR [edx],eax
    8d65:	50                   	push   eax
    8d66:	8d 74 24 04          	lea    esi,[esp+0x4]
    8d6a:	56                   	push   esi
    8d6b:	6a 00                	push   0x0
    8d6d:	6a 01                	push   0x1
    8d6f:	e8 1c b7 ff ff       	call   4490 <__cpuid@plt>
    8d74:	83 c4 10             	add    esp,0x10
    8d77:	f6 44 24 0a 20       	test   BYTE PTR [esp+0xa],0x20
    8d7c:	74 15                	je     8d93 <SetupBSP+0x73>
    8d7e:	83 ec 0c             	sub    esp,0xc
    8d81:	8d 83 dd e7 ff ff    	lea    eax,[ebx-0x1823]
    8d87:	50                   	push   eax
    8d88:	e8 53 b6 ff ff       	call   43e0 <DbgLine@plt>
    8d8d:	c6 07 01             	mov    BYTE PTR [edi],0x1
    8d90:	83 c4 10             	add    esp,0x10
    8d93:	b9 1b 00 00 00       	mov    ecx,0x1b
    8d98:	0f 32                	rdmsr  
    8d9a:	55                   	push   ebp
    8d9b:	56                   	push   esi
    8d9c:	6a 02                	push   0x2
    8d9e:	6a 0b                	push   0xb
    8da0:	e8 eb b6 ff ff       	call   4490 <__cpuid@plt>
    8da5:	83 c4 10             	add    esp,0x10
    8da8:	80 3f 00             	cmp    BYTE PTR [edi],0x0
    8dab:	0f 85 cd 02 00 00    	jne    907e <SetupBSP+0x35e>
    8db1:	8b 83 e4 fd ff ff    	mov    eax,DWORD PTR [ebx-0x21c]
    8db7:	8b 00                	mov    eax,DWORD PTR [eax]
    8db9:	8b 40 20             	mov    eax,DWORD PTR [eax+0x20]
    8dbc:	c1 e8 18             	shr    eax,0x18
    8dbf:	05 80 82 01 00       	add    eax,0x18280
    8dc4:	c1 e0 0f             	shl    eax,0xf
    8dc7:	89 c6                	mov    esi,eax
    8dc9:	83 ec 0c             	sub    esp,0xc
    8dcc:	6a 00                	push   0x0
    8dce:	6a 0b                	push   0xb
    8dd0:	68 08 00 00 80       	push   0x80000008
    8dd5:	6a 00                	push   0x0
    8dd7:	50                   	push   eax
    8dd8:	e8 f3 b5 ff ff       	call   43d0 <EnsureUsability@plt>
    8ddd:	83 c4 20             	add    esp,0x20
    8de0:	80 3f 00             	cmp    BYTE PTR [edi],0x0
    8de3:	0f 85 86 02 00 00    	jne    906f <SetupBSP+0x34f>
    8de9:	8b 83 e4 fd ff ff    	mov    eax,DWORD PTR [ebx-0x21c]
    8def:	8b 00                	mov    eax,DWORD PTR [eax]
    8df1:	8b 40 20             	mov    eax,DWORD PTR [eax+0x20]
    8df4:	c1 e8 18             	shr    eax,0x18
    8df7:	c1 e0 0f             	shl    eax,0xf
    8dfa:	8d a8 00 70 40 c1    	lea    ebp,[eax-0x3ebf9000]
    8e00:	2d 00 a0 bf 3e       	sub    eax,0x3ebfa000
    8e05:	83 ec 0c             	sub    esp,0xc
    8e08:	6a 00                	push   0x0
    8e0a:	6a 03                	push   0x3
    8e0c:	6a 08                	push   0x8
    8e0e:	6a 00                	push   0x0
    8e10:	50                   	push   eax
    8e11:	e8 ba b5 ff ff       	call   43d0 <EnsureUsability@plt>
    8e16:	83 c4 14             	add    esp,0x14
    8e19:	6a 00                	push   0x0
    8e1b:	6a 03                	push   0x3
    8e1d:	6a 08                	push   0x8
    8e1f:	6a 00                	push   0x0
    8e21:	55                   	push   ebp
    8e22:	e8 a9 b5 ff ff       	call   43d0 <EnsureUsability@plt>
    8e27:	83 c4 20             	add    esp,0x20
    8e2a:	80 3f 00             	cmp    BYTE PTR [edi],0x0
    8e2d:	0f 85 35 02 00 00    	jne    9068 <SetupBSP+0x348>
    8e33:	8b 83 e4 fd ff ff    	mov    eax,DWORD PTR [ebx-0x21c]
    8e39:	8b 00                	mov    eax,DWORD PTR [eax]
    8e3b:	8b 40 20             	mov    eax,DWORD PTR [eax+0x20]
    8e3e:	c1 e8 18             	shr    eax,0x18
    8e41:	83 ec 0c             	sub    esp,0xc
    8e44:	50                   	push   eax
    8e45:	e8 a6 b7 ff ff       	call   45f0 <_ZN3HAL8LocalIRQ4initEm@plt>
    8e4a:	83 c4 0c             	add    esp,0xc
    8e4d:	68 10 0e 00 00       	push   0xe10
    8e52:	6a 00                	push   0x0
    8e54:	56                   	push   esi
    8e55:	e8 36 b8 ff ff       	call   4690 <_Z6memsetPvhm@plt>
    8e5a:	89 34 24             	mov    DWORD PTR [esp],esi
    8e5d:	e8 fe b7 ff ff       	call   4660 <ConstructProcessor@plt>
    8e62:	e8 c9 b8 ff ff       	call   4730 <DisablePIC@plt>
    8e67:	e8 a4 b5 ff ff       	call   4410 <MapIDT@plt>
    8e6c:	e8 2f b8 ff ff       	call   46a0 <SetupProcessor@plt>
    8e71:	8b 83 04 ff ff ff    	mov    eax,DWORD PTR [ebx-0xfc]
    8e77:	c6 00 01             	mov    BYTE PTR [eax],0x1
    8e7a:	e8 71 b6 ff ff       	call   44f0 <_ZN4APIC15setupEarlyTimerEv@plt>
    8e7f:	31 c0                	xor    eax,eax
    8e81:	0f 01 38             	invlpg BYTE PTR [eax]
    8e84:	8d 83 ee e7 ff ff    	lea    eax,[ebx-0x1812]
    8e8a:	89 04 24             	mov    DWORD PTR [esp],eax
    8e8d:	e8 ee b7 ff ff       	call   4680 <_ZN6Module13RecordManager6searchEPc@plt>
    8e92:	83 c4 10             	add    esp,0x10
    8e95:	85 c0                	test   eax,eax
    8e97:	0f 84 03 02 00 00    	je     90a0 <SetupBSP+0x380>
    8e9d:	8b 40 30             	mov    eax,DWORD PTR [eax+0x30]
    8ea0:	8b 93 8c ff ff ff    	mov    edx,DWORD PTR [ebx-0x74]
    8ea6:	89 02                	mov    DWORD PTR [edx],eax
    8ea8:	52                   	push   edx
    8ea9:	6a 00                	push   0x0
    8eab:	6a 01                	push   0x1
    8ead:	50                   	push   eax
    8eae:	e8 dd b8 ff ff       	call   4790 <_Z9GetFramesmmP8_CONTEXT@plt>
    8eb3:	05 00 00 00 10       	add    eax,0x10000000
    8eb8:	ba ab aa aa aa       	mov    edx,0xaaaaaaab
    8ebd:	f7 e2                	mul    edx
    8ebf:	89 d0                	mov    eax,edx
    8ec1:	c1 e8 03             	shr    eax,0x3
    8ec4:	c1 e0 0c             	shl    eax,0xc
    8ec7:	8b 93 38 ff ff ff    	mov    edx,DWORD PTR [ebx-0xc8]
    8ecd:	89 02                	mov    DWORD PTR [edx],eax
    8ecf:	59                   	pop    ecx
    8ed0:	5f                   	pop    edi
    8ed1:	6a 0a                	push   0xa
    8ed3:	6a 0f                	push   0xf
    8ed5:	e8 3a c9 ff ff       	call   5814 <_ZN4APIC14wakeupSequenceEjh+0xac>
    8eda:	8b 83 c4 fd ff ff    	mov    eax,DWORD PTR [ebx-0x23c]
    8ee0:	8b 00                	mov    eax,DWORD PTR [eax]
    8ee2:	c1 e0 0c             	shl    eax,0xc
    8ee5:	c1 e8 04             	shr    eax,0x4
    8ee8:	66 a3 69 04 00 c0    	mov    ds:0xc0000469,ax
    8eee:	66 c7 05 67 04 00 c0 	mov    WORD PTR ds:0xc0000467,0x0
    8ef5:	00 00 
    8ef7:	83 c4 0c             	add    esp,0xc
    8efa:	8d 86 b4 0d 00 00    	lea    eax,[esi+0xdb4]
    8f00:	50                   	push   eax
    8f01:	6a 00                	push   0x0
    8f03:	68 02 00 00 80       	push   0x80000002
    8f08:	e8 83 b5 ff ff       	call   4490 <__cpuid@plt>
    8f0d:	83 c4 0c             	add    esp,0xc
    8f10:	8d 86 c4 0d 00 00    	lea    eax,[esi+0xdc4]
    8f16:	50                   	push   eax
    8f17:	6a 00                	push   0x0
    8f19:	68 03 00 00 80       	push   0x80000003
    8f1e:	e8 6d b5 ff ff       	call   4490 <__cpuid@plt>
    8f23:	83 c4 0c             	add    esp,0xc
    8f26:	8d 86 d4 0d 00 00    	lea    eax,[esi+0xdd4]
    8f2c:	50                   	push   eax
    8f2d:	6a 00                	push   0x0
    8f2f:	68 04 00 00 80       	push   0x80000004
    8f34:	e8 57 b5 ff ff       	call   4490 <__cpuid@plt>
    8f39:	83 c4 0c             	add    esp,0xc
    8f3c:	8d 7c 24 14          	lea    edi,[esp+0x14]
    8f40:	57                   	push   edi
    8f41:	6a 00                	push   0x0
    8f43:	6a 15                	push   0x15
    8f45:	e8 46 b5 ff ff       	call   4490 <__cpuid@plt>
    8f4a:	8b 44 24 24          	mov    eax,DWORD PTR [esp+0x24]
    8f4e:	83 c4 10             	add    esp,0x10
    8f51:	8b 4c 24 18          	mov    ecx,DWORD PTR [esp+0x18]
    8f55:	89 8e 04 0e 00 00    	mov    DWORD PTR [esi+0xe04],ecx
    8f5b:	85 c0                	test   eax,eax
    8f5d:	74 08                	je     8f67 <SetupBSP+0x247>
    8f5f:	85 c9                	test   ecx,ecx
    8f61:	0f 85 50 01 00 00    	jne    90b7 <SetupBSP+0x397>
    8f67:	c7 86 0c 0e 00 00 00 	mov    DWORD PTR [esi+0xe0c],0x0
    8f6e:	00 00 00 
    8f71:	50                   	push   eax
    8f72:	57                   	push   edi
    8f73:	6a 00                	push   0x0
    8f75:	6a 16                	push   0x16
    8f77:	e8 14 b5 ff ff       	call   4490 <__cpuid@plt>
    8f7c:	8b 44 24 20          	mov    eax,DWORD PTR [esp+0x20]
    8f80:	25 00 00 ff ff       	and    eax,0xffff0000
    8f85:	89 86 fc 0d 00 00    	mov    DWORD PTR [esi+0xdfc],eax
    8f8b:	8b 54 24 28          	mov    edx,DWORD PTR [esp+0x28]
    8f8f:	81 e2 00 00 ff ff    	and    edx,0xffff0000
    8f95:	89 96 00 0e 00 00    	mov    DWORD PTR [esi+0xe00],edx
    8f9b:	8b 54 24 24          	mov    edx,DWORD PTR [esp+0x24]
    8f9f:	81 e2 00 00 ff ff    	and    edx,0xffff0000
    8fa5:	89 96 08 0e 00 00    	mov    DWORD PTR [esi+0xe08],edx
    8fab:	83 c4 10             	add    esp,0x10
    8fae:	85 c0                	test   eax,eax
    8fb0:	75 12                	jne    8fc4 <SetupBSP+0x2a4>
    8fb2:	83 ec 0c             	sub    esp,0xc
    8fb5:	81 c6 f8 00 00 00    	add    esi,0xf8
    8fbb:	56                   	push   esi
    8fbc:	e8 3f b7 ff ff       	call   4700 <_ZN3HAL7ArchCpu20extractBaseFrequencyEv@plt>
    8fc1:	83 c4 10             	add    esp,0x10
    8fc4:	83 ec 0c             	sub    esp,0xc
    8fc7:	6a 00                	push   0x0
    8fc9:	6a 00                	push   0x0
    8fcb:	6a 04                	push   0x4
    8fcd:	6a 48                	push   0x48
    8fcf:	8d 83 17 e8 ff ff    	lea    eax,[ebx-0x17e9]
    8fd5:	50                   	push   eax
    8fd6:	e8 e5 b5 ff ff       	call   45c0 <KiCreateType@plt>
    8fdb:	89 83 fc 09 00 00    	mov    DWORD PTR [ebx+0x9fc],eax
    8fe1:	83 c4 18             	add    esp,0x18
    8fe4:	6a 00                	push   0x0
    8fe6:	50                   	push   eax
    8fe7:	e8 14 b6 ff ff       	call   4600 <KNew@plt>
    8fec:	89 c6                	mov    esi,eax
    8fee:	c7 40 24 00 00 00 00 	mov    DWORD PTR [eax+0x24],0x0
    8ff5:	c7 40 28 00 00 00 00 	mov    DWORD PTR [eax+0x28],0x0
    8ffc:	c7 40 2c 00 00 00 00 	mov    DWORD PTR [eax+0x2c],0x0
    9003:	c7 40 30 00 00 00 00 	mov    DWORD PTR [eax+0x30],0x0
    900a:	c7 40 34 00 00 00 00 	mov    DWORD PTR [eax+0x34],0x0
    9011:	c7 40 38 00 00 00 00 	mov    DWORD PTR [eax+0x38],0x0
    9018:	c7 40 10 00 00 00 00 	mov    DWORD PTR [eax+0x10],0x0
    901f:	c7 40 18 00 00 00 00 	mov    DWORD PTR [eax+0x18],0x0
    9026:	c7 40 1c 00 00 00 00 	mov    DWORD PTR [eax+0x1c],0x0
    902d:	c7 40 20 00 00 00 00 	mov    DWORD PTR [eax+0x20],0x0
    9034:	8d 40 3c             	lea    eax,[eax+0x3c]
    9037:	89 04 24             	mov    DWORD PTR [esp],eax
    903a:	e8 f1 b3 ff ff       	call   4430 <SpinUnlock@plt>
    903f:	8d 46 40             	lea    eax,[esi+0x40]
    9042:	89 04 24             	mov    DWORD PTR [esp],eax
    9045:	e8 e6 b3 ff ff       	call   4430 <SpinUnlock@plt>
    904a:	8d 46 44             	lea    eax,[esi+0x44]
    904d:	89 04 24             	mov    DWORD PTR [esp],eax
    9050:	e8 db b3 ff ff       	call   4430 <SpinUnlock@plt>
    9055:	89 b3 00 0a 00 00    	mov    DWORD PTR [ebx+0xa00],esi
    905b:	e8 70 b4 ff ff       	call   44d0 <_ZN3HAL17ProcessorTopology4plugEv@plt>
    9060:	83 c4 3c             	add    esp,0x3c
    9063:	5b                   	pop    ebx
    9064:	5e                   	pop    esi
    9065:	5f                   	pop    edi
    9066:	5d                   	pop    ebp
    9067:	c3                   	ret    
    9068:	31 c0                	xor    eax,eax
    906a:	e9 d2 fd ff ff       	jmp    8e41 <SetupBSP+0x121>
    906f:	b8 00 60 40 c1       	mov    eax,0xc1406000
    9074:	bd 00 70 40 c1       	mov    ebp,0xc1407000
    9079:	e9 87 fd ff ff       	jmp    8e05 <SetupBSP+0xe5>
    907e:	be 00 00 40 c1       	mov    esi,0xc1400000
    9083:	b8 00 00 40 c1       	mov    eax,0xc1400000
    9088:	e9 3c fd ff ff       	jmp    8dc9 <SetupBSP+0xa9>
    908d:	8b 83 dc fe ff ff    	mov    eax,DWORD PTR [ebx-0x124]
    9093:	c7 00 00 00 00 00    	mov    DWORD PTR [eax],0x0
    9099:	31 c0                	xor    eax,eax
    909b:	e9 bd fc ff ff       	jmp    8d5d <SetupBSP+0x3d>
    90a0:	83 ec 0c             	sub    esp,0xc
    90a3:	8d 83 00 e8 ff ff    	lea    eax,[ebx-0x1800]
    90a9:	50                   	push   eax
    90aa:	e8 31 b3 ff ff       	call   43e0 <DbgLine@plt>
    90af:	83 c4 10             	add    esp,0x10
    90b2:	66 90                	xchg   ax,ax
    90b4:	f4                   	hlt    
    90b5:	eb fd                	jmp    90b4 <SetupBSP+0x394>
    90b7:	31 d2                	xor    edx,edx
    90b9:	f7 74 24 10          	div    DWORD PTR [esp+0x10]
    90bd:	0f af c1             	imul   eax,ecx
    90c0:	89 86 0c 0e 00 00    	mov    DWORD PTR [esi+0xe0c],eax
    90c6:	e9 a6 fe ff ff       	jmp    8f71 <SetupBSP+0x251>
    90cb:	90                   	nop

000090cc <APMain>:
    90cc:	53                   	push   ebx
    90cd:	83 ec 18             	sub    esp,0x18
    90d0:	e8 1b c1 ff ff       	call   51f0 <_Z13EnumerateMADTPFvP14MADTEntryLAPICEPFvP15MADTEntryIOAPICEPFvP12MADTEntryISRE+0x9c>
    90d5:	81 c3 23 23 00 00    	add    ebx,0x2323
    90db:	e8 c0 b5 ff ff       	call   46a0 <SetupProcessor@plt>
    90e0:	e8 eb b3 ff ff       	call   44d0 <_ZN3HAL17ProcessorTopology4plugEv@plt>
    90e5:	e8 36 b4 ff ff       	call   4520 <_Z13SetupRunqueuev@plt>
    90ea:	83 ec 0c             	sub    esp,0xc
    90ed:	8d 44 24 14          	lea    eax,[esp+0x14]
    90f1:	50                   	push   eax
    90f2:	e8 69 b6 ff ff       	call   4760 <APWaitForPermit@plt>
    90f7:	31 c0                	xor    eax,eax
    90f9:	0f 01 38             	invlpg BYTE PTR [eax]
    90fc:	e8 ef b5 ff ff       	call   46f0 <_ZN4APIC18setupScheduleTicksEv@plt>
    9101:	83 c4 10             	add    esp,0x10
    9104:	f4                   	hlt    
    9105:	eb fd                	jmp    9104 <APMain+0x38>
    9107:	90                   	nop

00009108 <Executable_ProcessorBinding_IPIRequest_Handler>:
    9108:	55                   	push   ebp
    9109:	57                   	push   edi
    910a:	56                   	push   esi
    910b:	53                   	push   ebx
    910c:	83 ec 1c             	sub    esp,0x1c
    910f:	e8 dc c0 ff ff       	call   51f0 <_Z13EnumerateMADTPFvP14MADTEntryLAPICEPFvP15MADTEntryIOAPICEPFvP12MADTEntryISRE+0x9c>
    9114:	81 c3 e4 22 00 00    	add    ebx,0x22e4
    911a:	8b 83 6c fd ff ff    	mov    eax,DWORD PTR [ebx-0x294]
    9120:	80 38 00             	cmp    BYTE PTR [eax],0x0
    9123:	0f 85 ff 00 00 00    	jne    9228 <Executable_ProcessorBinding_IPIRequest_Handler+0x120>
    9129:	8b 83 e4 fd ff ff    	mov    eax,DWORD PTR [ebx-0x21c]
    912f:	8b 00                	mov    eax,DWORD PTR [eax]
    9131:	8b 78 20             	mov    edi,DWORD PTR [eax+0x20]
    9134:	c1 ef 18             	shr    edi,0x18
    9137:	81 c7 80 82 01 00    	add    edi,0x18280
    913d:	c1 e7 0f             	shl    edi,0xf
    9140:	83 ec 0c             	sub    esp,0xc
    9143:	57                   	push   edi
    9144:	e8 37 b4 ff ff       	call   4580 <_ZN3HAL9CPUDriver11readRequestEPNS_9ProcessorE@plt>
    9149:	89 c6                	mov    esi,eax
    914b:	83 c4 10             	add    esp,0x10
    914e:	85 c0                	test   eax,eax
    9150:	0f 84 c8 00 00 00    	je     921e <Executable_ProcessorBinding_IPIRequest_Handler+0x116>
    9156:	8b 40 08             	mov    eax,DWORD PTR [eax+0x8]
    9159:	85 c0                	test   eax,eax
    915b:	0f 84 d3 00 00 00    	je     9234 <Executable_ProcessorBinding_IPIRequest_Handler+0x12c>
    9161:	48                   	dec    eax
    9162:	0f 85 f4 00 00 00    	jne    925c <Executable_ProcessorBinding_IPIRequest_Handler+0x154>
    9168:	8b 4e 14             	mov    ecx,DWORD PTR [esi+0x14]
    916b:	8b 46 20             	mov    eax,DWORD PTR [esi+0x20]
    916e:	8d 79 28             	lea    edi,[ecx+0x28]
    9171:	89 4c 24 0c          	mov    DWORD PTR [esp+0xc],ecx
    9175:	8b 04 b8             	mov    eax,DWORD PTR [eax+edi*4]
    9178:	8b 56 24             	mov    edx,DWORD PTR [esi+0x24]
    917b:	8b 2c ba             	mov    ebp,DWORD PTR [edx+edi*4]
    917e:	8b 40 04             	mov    eax,DWORD PTR [eax+0x4]
    9181:	2b 45 04             	sub    eax,DWORD PTR [ebp+0x4]
    9184:	8b 56 18             	mov    edx,DWORD PTR [esi+0x18]
    9187:	8b 6a 18             	mov    ebp,DWORD PTR [edx+0x18]
    918a:	8d 55 01             	lea    edx,[ebp+0x1]
    918d:	0f af c2             	imul   eax,edx
    9190:	83 c5 02             	add    ebp,0x2
    9193:	31 d2                	xor    edx,edx
    9195:	f7 f5                	div    ebp
    9197:	89 c5                	mov    ebp,eax
    9199:	83 ec 08             	sub    esp,0x8
    919c:	6a 00                	push   0x0
    919e:	8b 93 5c fd ff ff    	mov    edx,DWORD PTR [ebx-0x2a4]
    91a4:	ff 32                	push   DWORD PTR [edx]
    91a6:	89 54 24 18          	mov    DWORD PTR [esp+0x18],edx
    91aa:	e8 51 b4 ff ff       	call   4600 <KNew@plt>
    91af:	8b 4e 1c             	mov    ecx,DWORD PTR [esi+0x1c]
    91b2:	89 48 24             	mov    DWORD PTR [eax+0x24],ecx
    91b5:	8b 4e 18             	mov    ecx,DWORD PTR [esi+0x18]
    91b8:	89 48 20             	mov    DWORD PTR [eax+0x20],ecx
    91bb:	8b 54 24 18          	mov    edx,DWORD PTR [esp+0x18]
    91bf:	8b 12                	mov    edx,DWORD PTR [edx]
    91c1:	c7 40 08 00 00 00 00 	mov    DWORD PTR [eax+0x8],0x0
    91c8:	c7 40 0c 00 00 00 00 	mov    DWORD PTR [eax+0xc],0x0
    91cf:	89 50 10             	mov    DWORD PTR [eax+0x10],edx
    91d2:	8b 4c 24 1c          	mov    ecx,DWORD PTR [esp+0x1c]
    91d6:	89 48 14             	mov    DWORD PTR [eax+0x14],ecx
    91d9:	c7 40 28 00 00 00 00 	mov    DWORD PTR [eax+0x28],0x0
    91e0:	8b 56 20             	mov    edx,DWORD PTR [esi+0x20]
    91e3:	8b 14 ba             	mov    edx,DWORD PTR [edx+edi*4]
    91e6:	8b 0a                	mov    ecx,DWORD PTR [edx]
    91e8:	55                   	push   ebp
    91e9:	8d 78 18             	lea    edi,[eax+0x18]
    91ec:	89 44 24 1c          	mov    DWORD PTR [esp+0x1c],eax
    91f0:	57                   	push   edi
    91f1:	ff 76 24             	push   DWORD PTR [esi+0x24]
    91f4:	52                   	push   edx
    91f5:	ff 51 14             	call   DWORD PTR [ecx+0x14]
    91f8:	8b 44 24 28          	mov    eax,DWORD PTR [esp+0x28]
    91fc:	89 68 28             	mov    DWORD PTR [eax+0x28],ebp
    91ff:	83 c4 18             	add    esp,0x18
    9202:	ff 76 24             	push   DWORD PTR [esi+0x24]
    9205:	50                   	push   eax
    9206:	e8 d5 b4 ff ff       	call   46e0 <_ZN3HAL9CPUDriver12writeRequestERNS_10IPIRequestEPNS_9ProcessorE@plt>
    920b:	58                   	pop    eax
    920c:	5a                   	pop    edx
    920d:	8b 83 b4 fd ff ff    	mov    eax,DWORD PTR [ebx-0x24c]
    9213:	ff 30                	push   DWORD PTR [eax]
    9215:	56                   	push   esi
    9216:	e8 55 b2 ff ff       	call   4470 <KDelete@plt>
    921b:	83 c4 10             	add    esp,0x10
    921e:	83 c4 1c             	add    esp,0x1c
    9221:	5b                   	pop    ebx
    9222:	5e                   	pop    esi
    9223:	5f                   	pop    edi
    9224:	5d                   	pop    ebp
    9225:	c3                   	ret    
    9226:	66 90                	xchg   ax,ax
    9228:	bf 00 00 40 c1       	mov    edi,0xc1400000
    922d:	e9 0e ff ff ff       	jmp    9140 <Executable_ProcessorBinding_IPIRequest_Handler+0x38>
    9232:	66 90                	xchg   ax,ax
    9234:	8b 87 a0 00 00 00    	mov    eax,DWORD PTR [edi+0xa0]
    923a:	8b 56 1c             	mov    edx,DWORD PTR [esi+0x1c]
    923d:	83 ec 0c             	sub    esp,0xc
    9240:	8b 08                	mov    ecx,DWORD PTR [eax]
    9242:	ff 76 28             	push   DWORD PTR [esi+0x28]
    9245:	ff 76 18             	push   DWORD PTR [esi+0x18]
    9248:	ff 72 04             	push   DWORD PTR [edx+0x4]
    924b:	52                   	push   edx
    924c:	50                   	push   eax
    924d:	ff 51 18             	call   DWORD PTR [ecx+0x18]
    9250:	83 c4 20             	add    esp,0x20
    9253:	83 c4 1c             	add    esp,0x1c
    9256:	5b                   	pop    ebx
    9257:	5e                   	pop    esi
    9258:	5f                   	pop    edi
    9259:	5d                   	pop    ebp
    925a:	c3                   	ret    
    925b:	90                   	nop
    925c:	83 ec 0c             	sub    esp,0xc
    925f:	8d 83 25 e8 ff ff    	lea    eax,[ebx-0x17db]
    9265:	50                   	push   eax
    9266:	e8 45 b2 ff ff       	call   44b0 <Dbg@plt>
    926b:	83 c4 10             	add    esp,0x10
    926e:	83 c4 1c             	add    esp,0x1c
    9271:	5b                   	pop    ebx
    9272:	5e                   	pop    esi
    9273:	5f                   	pop    edi
    9274:	5d                   	pop    ebp
    9275:	c3                   	ret    
    9276:	66 90                	xchg   ax,ax

00009278 <_ZN3HAL8LocalIRQD1Ev>:
    9278:	53                   	push   ebx
    9279:	83 ec 14             	sub    esp,0x14
    927c:	e8 6f bf ff ff       	call   51f0 <_Z13EnumerateMADTPFvP14MADTEntryLAPICEPFvP15MADTEntryIOAPICEPFvP12MADTEntryISRE+0x9c>
    9281:	81 c3 77 21 00 00    	add    ebx,0x2177
    9287:	8b 44 24 1c          	mov    eax,DWORD PTR [esp+0x1c]
    928b:	8b 93 24 ff ff ff    	mov    edx,DWORD PTR [ebx-0xdc]
    9291:	83 c2 08             	add    edx,0x8
    9294:	89 10                	mov    DWORD PTR [eax],edx
    9296:	50                   	push   eax
    9297:	e8 94 b2 ff ff       	call   4530 <_ZN10Executable10IRQHandlerD2Ev@plt>
    929c:	83 c4 18             	add    esp,0x18
    929f:	5b                   	pop    ebx
    92a0:	c3                   	ret    
    92a1:	66 90                	xchg   ax,ax
    92a3:	90                   	nop

000092a4 <_ZN3HAL8LocalIRQD0Ev>:
    92a4:	56                   	push   esi
    92a5:	53                   	push   ebx
    92a6:	83 ec 10             	sub    esp,0x10
    92a9:	e8 42 bf ff ff       	call   51f0 <_Z13EnumerateMADTPFvP14MADTEntryLAPICEPFvP15MADTEntryIOAPICEPFvP12MADTEntryISRE+0x9c>
    92ae:	81 c3 4a 21 00 00    	add    ebx,0x214a
    92b4:	8b 74 24 1c          	mov    esi,DWORD PTR [esp+0x1c]
    92b8:	8b 83 24 ff ff ff    	mov    eax,DWORD PTR [ebx-0xdc]
    92be:	83 c0 08             	add    eax,0x8
    92c1:	89 06                	mov    DWORD PTR [esi],eax
    92c3:	56                   	push   esi
    92c4:	e8 67 b2 ff ff       	call   4530 <_ZN10Executable10IRQHandlerD2Ev@plt>
    92c9:	58                   	pop    eax
    92ca:	5a                   	pop    edx
    92cb:	6a 00                	push   0x0
    92cd:	56                   	push   esi
    92ce:	e8 8d b2 ff ff       	call   4560 <_Z5kfreePvb@plt>
    92d3:	83 c4 14             	add    esp,0x14
    92d6:	5b                   	pop    ebx
    92d7:	5e                   	pop    esi
    92d8:	c3                   	ret    
    92d9:	66 90                	xchg   ax,ax
    92db:	90                   	nop

000092dc <_Z15UpdateCoreCountPN3HAL6DomainE>:
    92dc:	8b 44 24 04          	mov    eax,DWORD PTR [esp+0x4]
    92e0:	ff 40 20             	inc    DWORD PTR [eax+0x20]
    92e3:	c3                   	ret    

000092e4 <_ZN3HAL17ProcessorTopology8Iterator10toggleLoadEPNS_9ProcessorEml>:
    92e4:	e8 76 05 00 00       	call   985f <_ZN3HAL13DomainBinding16findBusiestGroupEmPNS_6DomainE+0x6f>
    92e9:	81 c2 0f 21 00 00    	add    edx,0x210f
    92ef:	8b 44 24 04          	mov    eax,DWORD PTR [esp+0x4]
    92f3:	8b 4c 24 0c          	mov    ecx,DWORD PTR [esp+0xc]
    92f7:	85 c0                	test   eax,eax
    92f9:	74 21                	je     931c <_ZN3HAL17ProcessorTopology8Iterator10toggleLoadEPNS_9ProcessorEml+0x38>
    92fb:	8b 80 e0 00 00 00    	mov    eax,DWORD PTR [eax+0xe0]
    9301:	85 c0                	test   eax,eax
    9303:	74 15                	je     931a <_ZN3HAL17ProcessorTopology8Iterator10toggleLoadEPNS_9ProcessorEml+0x36>
    9305:	8b 54 24 08          	mov    edx,DWORD PTR [esp+0x8]
    9309:	c1 e2 03             	shl    edx,0x3
    930c:	01 4c 10 24          	add    DWORD PTR [eax+edx*1+0x24],ecx
    9310:	0f ae f0             	mfence 
    9313:	8b 40 10             	mov    eax,DWORD PTR [eax+0x10]
    9316:	85 c0                	test   eax,eax
    9318:	75 f2                	jne    930c <_ZN3HAL17ProcessorTopology8Iterator10toggleLoadEPNS_9ProcessorEml+0x28>
    931a:	c3                   	ret    
    931b:	90                   	nop
    931c:	8b 82 6c fd ff ff    	mov    eax,DWORD PTR [edx-0x294]
    9322:	80 38 00             	cmp    BYTE PTR [eax],0x0
    9325:	74 09                	je     9330 <_ZN3HAL17ProcessorTopology8Iterator10toggleLoadEPNS_9ProcessorEml+0x4c>
    9327:	b8 00 00 40 c1       	mov    eax,0xc1400000
    932c:	eb cd                	jmp    92fb <_ZN3HAL17ProcessorTopology8Iterator10toggleLoadEPNS_9ProcessorEml+0x17>
    932e:	66 90                	xchg   ax,ax
    9330:	8b 82 e4 fd ff ff    	mov    eax,DWORD PTR [edx-0x21c]
    9336:	8b 00                	mov    eax,DWORD PTR [eax]
    9338:	8b 40 20             	mov    eax,DWORD PTR [eax+0x20]
    933b:	c1 e8 18             	shr    eax,0x18
    933e:	05 80 82 01 00       	add    eax,0x18280
    9343:	c1 e0 0f             	shl    eax,0xf
    9346:	eb b3                	jmp    92fb <_ZN3HAL17ProcessorTopology8Iterator10toggleLoadEPNS_9ProcessorEml+0x17>

00009348 <_ZN3HAL17ProcessorTopology8Iterator6ofEachEPNS_9ProcessorEPFvPNS_6DomainEEm>:
    9348:	55                   	push   ebp
    9349:	57                   	push   edi
    934a:	56                   	push   esi
    934b:	53                   	push   ebx
    934c:	83 ec 0c             	sub    esp,0xc
    934f:	e8 9c be ff ff       	call   51f0 <_Z13EnumerateMADTPFvP14MADTEntryLAPICEPFvP15MADTEntryIOAPICEPFvP12MADTEntryISRE+0x9c>
    9354:	81 c3 a4 20 00 00    	add    ebx,0x20a4
    935a:	8b 44 24 20          	mov    eax,DWORD PTR [esp+0x20]
    935e:	8b 7c 24 28          	mov    edi,DWORD PTR [esp+0x28]
    9362:	85 c0                	test   eax,eax
    9364:	74 42                	je     93a8 <_ZN3HAL17ProcessorTopology8Iterator6ofEachEPNS_9ProcessorEPFvPNS_6DomainEEm+0x60>
    9366:	8b b0 e0 00 00 00    	mov    esi,DWORD PTR [eax+0xe0]
    936c:	85 f6                	test   esi,esi
    936e:	75 2a                	jne    939a <_ZN3HAL17ProcessorTopology8Iterator6ofEachEPNS_9ProcessorEPFvPNS_6DomainEEm+0x52>
    9370:	eb 2c                	jmp    939e <_ZN3HAL17ProcessorTopology8Iterator6ofEachEPNS_9ProcessorEPFvPNS_6DomainEEm+0x56>
    9372:	66 90                	xchg   ax,ax
    9374:	8d 6e 44             	lea    ebp,[esi+0x44]
    9377:	83 ec 0c             	sub    esp,0xc
    937a:	55                   	push   ebp
    937b:	e8 e0 b0 ff ff       	call   4460 <SpinLock@plt>
    9380:	89 34 24             	mov    DWORD PTR [esp],esi
    9383:	ff 54 24 34          	call   DWORD PTR [esp+0x34]
    9387:	89 2c 24             	mov    DWORD PTR [esp],ebp
    938a:	e8 a1 b0 ff ff       	call   4430 <SpinUnlock@plt>
    938f:	8b 76 10             	mov    esi,DWORD PTR [esi+0x10]
    9392:	4f                   	dec    edi
    9393:	83 c4 10             	add    esp,0x10
    9396:	85 f6                	test   esi,esi
    9398:	74 04                	je     939e <_ZN3HAL17ProcessorTopology8Iterator6ofEachEPNS_9ProcessorEPFvPNS_6DomainEEm+0x56>
    939a:	85 ff                	test   edi,edi
    939c:	75 d6                	jne    9374 <_ZN3HAL17ProcessorTopology8Iterator6ofEachEPNS_9ProcessorEPFvPNS_6DomainEEm+0x2c>
    939e:	83 c4 0c             	add    esp,0xc
    93a1:	5b                   	pop    ebx
    93a2:	5e                   	pop    esi
    93a3:	5f                   	pop    edi
    93a4:	5d                   	pop    ebp
    93a5:	c3                   	ret    
    93a6:	66 90                	xchg   ax,ax
    93a8:	8b 83 6c fd ff ff    	mov    eax,DWORD PTR [ebx-0x294]
    93ae:	80 38 00             	cmp    BYTE PTR [eax],0x0
    93b1:	74 09                	je     93bc <_ZN3HAL17ProcessorTopology8Iterator6ofEachEPNS_9ProcessorEPFvPNS_6DomainEEm+0x74>
    93b3:	b8 00 00 40 c1       	mov    eax,0xc1400000
    93b8:	eb ac                	jmp    9366 <_ZN3HAL17ProcessorTopology8Iterator6ofEachEPNS_9ProcessorEPFvPNS_6DomainEEm+0x1e>
    93ba:	66 90                	xchg   ax,ax
    93bc:	8b 83 e4 fd ff ff    	mov    eax,DWORD PTR [ebx-0x21c]
    93c2:	8b 00                	mov    eax,DWORD PTR [eax]
    93c4:	8b 40 20             	mov    eax,DWORD PTR [eax+0x20]
    93c7:	c1 e8 18             	shr    eax,0x18
    93ca:	05 80 82 01 00       	add    eax,0x18280
    93cf:	c1 e0 0f             	shl    eax,0xf
    93d2:	eb 92                	jmp    9366 <_ZN3HAL17ProcessorTopology8Iterator6ofEachEPNS_9ProcessorEPFvPNS_6DomainEEm+0x1e>

000093d4 <_ZN3HAL17ProcessorTopology4plugEv>:
    93d4:	55                   	push   ebp
    93d5:	57                   	push   edi
    93d6:	56                   	push   esi
    93d7:	53                   	push   ebx
    93d8:	83 ec 2c             	sub    esp,0x2c
    93db:	e8 10 be ff ff       	call   51f0 <_Z13EnumerateMADTPFvP14MADTEntryLAPICEPFvP15MADTEntryIOAPICEPFvP12MADTEntryISRE+0x9c>
    93e0:	81 c3 18 20 00 00    	add    ebx,0x2018
    93e6:	8b 83 6c fd ff ff    	mov    eax,DWORD PTR [ebx-0x294]
    93ec:	80 38 00             	cmp    BYTE PTR [eax],0x0
    93ef:	0f 85 2b 02 00 00    	jne    9620 <_ZN3HAL17ProcessorTopology4plugEv+0x24c>
    93f5:	8b 83 e4 fd ff ff    	mov    eax,DWORD PTR [ebx-0x21c]
    93fb:	8b 00                	mov    eax,DWORD PTR [eax]
    93fd:	8b 68 20             	mov    ebp,DWORD PTR [eax+0x20]
    9400:	c1 ed 18             	shr    ebp,0x18
    9403:	81 c5 80 82 01 00    	add    ebp,0x18280
    9409:	c1 e5 0f             	shl    ebp,0xf
    940c:	89 6c 24 08          	mov    DWORD PTR [esp+0x8],ebp
    9410:	8b bd f8 00 00 00    	mov    edi,DWORD PTR [ebp+0xf8]
    9416:	56                   	push   esi
    9417:	8d 74 24 14          	lea    esi,[esp+0x14]
    941b:	56                   	push   esi
    941c:	6a 00                	push   0x0
    941e:	6a 04                	push   0x4
    9420:	e8 6b b0 ff ff       	call   4490 <__cpuid@plt>
    9425:	8b 44 24 20          	mov    eax,DWORD PTR [esp+0x20]
    9429:	c1 e8 1a             	shr    eax,0x1a
    942c:	40                   	inc    eax
    942d:	89 04 24             	mov    DWORD PTR [esp],eax
    9430:	e8 0b b1 ff ff       	call   4540 <FindMaskWidth@plt>
    9435:	89 c5                	mov    ebp,eax
    9437:	83 c4 0c             	add    esp,0xc
    943a:	56                   	push   esi
    943b:	6a 00                	push   0x0
    943d:	6a 01                	push   0x1
    943f:	e8 4c b0 ff ff       	call   4490 <__cpuid@plt>
    9444:	0f b6 44 24 26       	movzx  eax,BYTE PTR [esp+0x26]
    9449:	89 04 24             	mov    DWORD PTR [esp],eax
    944c:	e8 ef b0 ff ff       	call   4540 <FindMaskWidth@plt>
    9451:	89 44 24 14          	mov    DWORD PTR [esp+0x14],eax
    9455:	89 c6                	mov    esi,eax
    9457:	89 e8                	mov    eax,ebp
    9459:	29 ee                	sub    esi,ebp
    945b:	89 f5                	mov    ebp,esi
    945d:	be 01 00 00 00       	mov    esi,0x1
    9462:	89 f2                	mov    edx,esi
    9464:	89 e9                	mov    ecx,ebp
    9466:	d3 e2                	shl    edx,cl
    9468:	4a                   	dec    edx
    9469:	21 fa                	and    edx,edi
    946b:	8b 4c 24 18          	mov    ecx,DWORD PTR [esp+0x18]
    946f:	89 91 0c 01 00 00    	mov    DWORD PTR [ecx+0x10c],edx
    9475:	88 c1                	mov    cl,al
    9477:	d3 e6                	shl    esi,cl
    9479:	4e                   	dec    esi
    947a:	89 f8                	mov    eax,edi
    947c:	89 e9                	mov    ecx,ebp
    947e:	d3 e8                	shr    eax,cl
    9480:	21 c6                	and    esi,eax
    9482:	8b 6c 24 18          	mov    ebp,DWORD PTR [esp+0x18]
    9486:	89 b5 08 01 00 00    	mov    DWORD PTR [ebp+0x108],esi
    948c:	89 f8                	mov    eax,edi
    948e:	8a 4c 24 14          	mov    cl,BYTE PTR [esp+0x14]
    9492:	d3 e8                	shr    eax,cl
    9494:	89 85 04 01 00 00    	mov    DWORD PTR [ebp+0x104],eax
    949a:	c7 85 00 01 00 00 00 	mov    DWORD PTR [ebp+0x100],0x0
    94a1:	00 00 00 
    94a4:	89 95 10 0e 00 00    	mov    DWORD PTR [ebp+0xe10],edx
    94aa:	89 b5 14 0e 00 00    	mov    DWORD PTR [ebp+0xe14],esi
    94b0:	89 85 18 0e 00 00    	mov    DWORD PTR [ebp+0xe18],eax
    94b6:	c7 85 1c 0e 00 00 00 	mov    DWORD PTR [ebp+0xe1c],0x0
    94bd:	00 00 00 
    94c0:	83 c4 10             	add    esp,0x10
    94c3:	8b b3 00 0a 00 00    	mov    esi,DWORD PTR [ebx+0xa00]
    94c9:	bf 03 00 00 00       	mov    edi,0x3
    94ce:	31 c0                	xor    eax,eax
    94d0:	8d 4e 44             	lea    ecx,[esi+0x44]
    94d3:	89 4c 24 04          	mov    DWORD PTR [esp+0x4],ecx
    94d7:	84 c0                	test   al,al
    94d9:	0f 84 2d 01 00 00    	je     960c <_ZN3HAL17ProcessorTopology4plugEv+0x238>
    94df:	8b 4e 0c             	mov    ecx,DWORD PTR [esi+0xc]
    94e2:	8b 44 24 08          	mov    eax,DWORD PTR [esp+0x8]
    94e6:	8b 94 b8 10 0e 00 00 	mov    edx,DWORD PTR [eax+edi*4+0xe10]
    94ed:	85 c9                	test   ecx,ecx
    94ef:	74 6b                	je     955c <_ZN3HAL17ProcessorTopology4plugEv+0x188>
    94f1:	89 c8                	mov    eax,ecx
    94f3:	eb 09                	jmp    94fe <_ZN3HAL17ProcessorTopology4plugEv+0x12a>
    94f5:	8d 76 00             	lea    esi,[esi+0x0]
    94f8:	8b 00                	mov    eax,DWORD PTR [eax]
    94fa:	39 c1                	cmp    ecx,eax
    94fc:	74 5e                	je     955c <_ZN3HAL17ProcessorTopology4plugEv+0x188>
    94fe:	39 50 14             	cmp    DWORD PTR [eax+0x14],edx
    9501:	75 f5                	jne    94f8 <_ZN3HAL17ProcessorTopology4plugEv+0x124>
    9503:	85 ff                	test   edi,edi
    9505:	0f 84 35 01 00 00    	je     9640 <_ZN3HAL17ProcessorTopology4plugEv+0x26c>
    950b:	89 c6                	mov    esi,eax
    950d:	31 c0                	xor    eax,eax
    950f:	88 44 24 0c          	mov    BYTE PTR [esp+0xc],al
    9513:	83 ec 0c             	sub    esp,0xc
    9516:	ff 74 24 10          	push   DWORD PTR [esp+0x10]
    951a:	e8 11 af ff ff       	call   4430 <SpinUnlock@plt>
    951f:	4f                   	dec    edi
    9520:	83 c4 10             	add    esp,0x10
    9523:	83 ff ff             	cmp    edi,0xffffffff
    9526:	8a 44 24 0c          	mov    al,BYTE PTR [esp+0xc]
    952a:	75 a4                	jne    94d0 <_ZN3HAL17ProcessorTopology4plugEv+0xfc>
    952c:	c7 46 1c 01 00 00 00 	mov    DWORD PTR [esi+0x1c],0x1
    9533:	8b 44 24 08          	mov    eax,DWORD PTR [esp+0x8]
    9537:	89 46 0c             	mov    DWORD PTR [esi+0xc],eax
    953a:	89 b0 e0 00 00 00    	mov    DWORD PTR [eax+0xe0],esi
    9540:	52                   	push   edx
    9541:	6a 04                	push   0x4
    9543:	ff b3 d4 ff ff ff    	push   DWORD PTR [ebx-0x2c]
    9549:	50                   	push   eax
    954a:	e8 e1 b0 ff ff       	call   4630 <_ZN3HAL17ProcessorTopology8Iterator6ofEachEPNS_9ProcessorEPFvPNS_6DomainEEm@plt>
    954f:	83 c4 10             	add    esp,0x10
    9552:	83 c4 2c             	add    esp,0x2c
    9555:	5b                   	pop    ebx
    9556:	5e                   	pop    esi
    9557:	5f                   	pop    edi
    9558:	5d                   	pop    ebp
    9559:	c3                   	ret    
    955a:	66 90                	xchg   ax,ax
    955c:	89 54 24 0c          	mov    DWORD PTR [esp+0xc],edx
    9560:	83 ec 08             	sub    esp,0x8
    9563:	6a 00                	push   0x0
    9565:	ff b3 fc 09 00 00    	push   DWORD PTR [ebx+0x9fc]
    956b:	e8 90 b0 ff ff       	call   4600 <KNew@plt>
    9570:	89 c5                	mov    ebp,eax
    9572:	c7 40 24 00 00 00 00 	mov    DWORD PTR [eax+0x24],0x0
    9579:	c7 40 28 00 00 00 00 	mov    DWORD PTR [eax+0x28],0x0
    9580:	c7 40 2c 00 00 00 00 	mov    DWORD PTR [eax+0x2c],0x0
    9587:	c7 40 30 00 00 00 00 	mov    DWORD PTR [eax+0x30],0x0
    958e:	c7 40 34 00 00 00 00 	mov    DWORD PTR [eax+0x34],0x0
    9595:	c7 40 38 00 00 00 00 	mov    DWORD PTR [eax+0x38],0x0
    959c:	89 70 10             	mov    DWORD PTR [eax+0x10],esi
    959f:	8b 54 24 1c          	mov    edx,DWORD PTR [esp+0x1c]
    95a3:	89 50 14             	mov    DWORD PTR [eax+0x14],edx
    95a6:	89 78 18             	mov    DWORD PTR [eax+0x18],edi
    95a9:	c7 40 1c 00 00 00 00 	mov    DWORD PTR [eax+0x1c],0x0
    95b0:	c7 40 20 00 00 00 00 	mov    DWORD PTR [eax+0x20],0x0
    95b7:	8d 50 3c             	lea    edx,[eax+0x3c]
    95ba:	89 14 24             	mov    DWORD PTR [esp],edx
    95bd:	e8 6e ae ff ff       	call   4430 <SpinUnlock@plt>
    95c2:	8d 55 40             	lea    edx,[ebp+0x40]
    95c5:	89 14 24             	mov    DWORD PTR [esp],edx
    95c8:	e8 63 ae ff ff       	call   4430 <SpinUnlock@plt>
    95cd:	8d 55 44             	lea    edx,[ebp+0x44]
    95d0:	89 14 24             	mov    DWORD PTR [esp],edx
    95d3:	89 54 24 1c          	mov    DWORD PTR [esp+0x1c],edx
    95d7:	e8 54 ae ff ff       	call   4430 <SpinUnlock@plt>
    95dc:	83 c4 10             	add    esp,0x10
    95df:	85 ff                	test   edi,edi
    95e1:	74 10                	je     95f3 <_ZN3HAL17ProcessorTopology4plugEv+0x21f>
    95e3:	83 ec 0c             	sub    esp,0xc
    95e6:	8b 54 24 18          	mov    edx,DWORD PTR [esp+0x18]
    95ea:	52                   	push   edx
    95eb:	e8 70 ae ff ff       	call   4460 <SpinLock@plt>
    95f0:	83 c4 10             	add    esp,0x10
    95f3:	51                   	push   ecx
    95f4:	83 c6 08             	add    esi,0x8
    95f7:	56                   	push   esi
    95f8:	6a 01                	push   0x1
    95fa:	55                   	push   ebp
    95fb:	e8 00 af ff ff       	call   4500 <AddCElement@plt>
    9600:	83 c4 10             	add    esp,0x10
    9603:	89 ee                	mov    esi,ebp
    9605:	b0 01                	mov    al,0x1
    9607:	e9 03 ff ff ff       	jmp    950f <_ZN3HAL17ProcessorTopology4plugEv+0x13b>
    960c:	83 ec 0c             	sub    esp,0xc
    960f:	ff 74 24 10          	push   DWORD PTR [esp+0x10]
    9613:	e8 48 ae ff ff       	call   4460 <SpinLock@plt>
    9618:	83 c4 10             	add    esp,0x10
    961b:	e9 bf fe ff ff       	jmp    94df <_ZN3HAL17ProcessorTopology4plugEv+0x10b>
    9620:	83 ec 0c             	sub    esp,0xc
    9623:	8d 83 a0 e8 ff ff    	lea    eax,[ebx-0x1760]
    9629:	50                   	push   eax
    962a:	e8 b1 ad ff ff       	call   43e0 <DbgLine@plt>
    962f:	83 c4 10             	add    esp,0x10
    9632:	c7 44 24 08 00 00 40 	mov    DWORD PTR [esp+0x8],0xc1400000
    9639:	c1 
    963a:	e9 84 fe ff ff       	jmp    94c3 <_ZN3HAL17ProcessorTopology4plugEv+0xef>
    963f:	90                   	nop
    9640:	83 ec 0c             	sub    esp,0xc
    9643:	ff 74 24 10          	push   DWORD PTR [esp+0x10]
    9647:	e8 e4 ad ff ff       	call   4430 <SpinUnlock@plt>
    964c:	83 c4 10             	add    esp,0x10
    964f:	83 c4 2c             	add    esp,0x2c
    9652:	5b                   	pop    ebx
    9653:	5e                   	pop    esi
    9654:	5f                   	pop    edi
    9655:	5d                   	pop    ebp
    9656:	c3                   	ret    
    9657:	90                   	nop

00009658 <_ZN3HAL17ProcessorTopology8Iterator6forAllEPNS_6DomainEPFvPNS_9ProcessorEE>:
    9658:	55                   	push   ebp
    9659:	57                   	push   edi
    965a:	56                   	push   esi
    965b:	53                   	push   ebx
    965c:	83 ec 0c             	sub    esp,0xc
    965f:	8b 74 24 20          	mov    esi,DWORD PTR [esp+0x20]
    9663:	8b 7c 24 24          	mov    edi,DWORD PTR [esp+0x24]
    9667:	89 f3                	mov    ebx,esi
    9669:	83 7e 1c 01          	cmp    DWORD PTR [esi+0x1c],0x1
    966d:	74 0a                	je     9679 <_ZN3HAL17ProcessorTopology8Iterator6forAllEPNS_6DomainEPFvPNS_9ProcessorEE+0x21>
    966f:	90                   	nop
    9670:	8b 5b 0c             	mov    ebx,DWORD PTR [ebx+0xc]
    9673:	83 7b 1c 01          	cmp    DWORD PTR [ebx+0x1c],0x1
    9677:	75 f7                	jne    9670 <_ZN3HAL17ProcessorTopology8Iterator6forAllEPNS_6DomainEPFvPNS_9ProcessorEE+0x18>
    9679:	8b 06                	mov    eax,DWORD PTR [esi]
    967b:	bd 01 00 00 00       	mov    ebp,0x1
    9680:	39 c3                	cmp    ebx,eax
    9682:	74 21                	je     96a5 <_ZN3HAL17ProcessorTopology8Iterator6forAllEPNS_6DomainEPFvPNS_9ProcessorEE+0x4d>
    9684:	83 7b 1c 01          	cmp    DWORD PTR [ebx+0x1c],0x1
    9688:	75 26                	jne    96b0 <_ZN3HAL17ProcessorTopology8Iterator6forAllEPNS_6DomainEPFvPNS_9ProcessorEE+0x58>
    968a:	83 ec 0c             	sub    esp,0xc
    968d:	ff 73 0c             	push   DWORD PTR [ebx+0xc]
    9690:	ff d7                	call   edi
    9692:	8b 1b                	mov    ebx,DWORD PTR [ebx]
    9694:	8b 43 10             	mov    eax,DWORD PTR [ebx+0x10]
    9697:	83 c4 10             	add    esp,0x10
    969a:	39 58 0c             	cmp    DWORD PTR [eax+0xc],ebx
    969d:	74 25                	je     96c4 <_ZN3HAL17ProcessorTopology8Iterator6forAllEPNS_6DomainEPFvPNS_9ProcessorEE+0x6c>
    969f:	8b 06                	mov    eax,DWORD PTR [esi]
    96a1:	39 c3                	cmp    ebx,eax
    96a3:	75 df                	jne    9684 <_ZN3HAL17ProcessorTopology8Iterator6forAllEPNS_6DomainEPFvPNS_9ProcessorEE+0x2c>
    96a5:	83 c4 0c             	add    esp,0xc
    96a8:	5b                   	pop    ebx
    96a9:	5e                   	pop    esi
    96aa:	5f                   	pop    edi
    96ab:	5d                   	pop    ebp
    96ac:	c3                   	ret    
    96ad:	8d 76 00             	lea    esi,[esi+0x0]
    96b0:	8b 53 10             	mov    edx,DWORD PTR [ebx+0x10]
    96b3:	39 5a 0c             	cmp    DWORD PTR [edx+0xc],ebx
    96b6:	74 14                	je     96cc <_ZN3HAL17ProcessorTopology8Iterator6forAllEPNS_6DomainEPFvPNS_9ProcessorEE+0x74>
    96b8:	8b 5b 0c             	mov    ebx,DWORD PTR [ebx+0xc]
    96bb:	bd 01 00 00 00       	mov    ebp,0x1
    96c0:	eb be                	jmp    9680 <_ZN3HAL17ProcessorTopology8Iterator6forAllEPNS_6DomainEPFvPNS_9ProcessorEE+0x28>
    96c2:	66 90                	xchg   ax,ax
    96c4:	8b 18                	mov    ebx,DWORD PTR [eax]
    96c6:	8b 06                	mov    eax,DWORD PTR [esi]
    96c8:	31 ed                	xor    ebp,ebp
    96ca:	eb b4                	jmp    9680 <_ZN3HAL17ProcessorTopology8Iterator6forAllEPNS_6DomainEPFvPNS_9ProcessorEE+0x28>
    96cc:	89 e9                	mov    ecx,ebp
    96ce:	84 c9                	test   cl,cl
    96d0:	75 e6                	jne    96b8 <_ZN3HAL17ProcessorTopology8Iterator6forAllEPNS_6DomainEPFvPNS_9ProcessorEE+0x60>
    96d2:	8b 1a                	mov    ebx,DWORD PTR [edx]
    96d4:	eb aa                	jmp    9680 <_ZN3HAL17ProcessorTopology8Iterator6forAllEPNS_6DomainEPFvPNS_9ProcessorEE+0x28>
    96d6:	66 90                	xchg   ax,ax

000096d8 <_ZN3HAL13DomainBinding9getIdlestEmPNS_6DomainE>:
    96d8:	55                   	push   ebp
    96d9:	57                   	push   edi
    96da:	56                   	push   esi
    96db:	53                   	push   ebx
    96dc:	8b 4c 24 14          	mov    ecx,DWORD PTR [esp+0x14]
    96e0:	8b 54 24 18          	mov    edx,DWORD PTR [esp+0x18]
    96e4:	8b 42 0c             	mov    eax,DWORD PTR [edx+0xc]
    96e7:	83 7a 1c 01          	cmp    DWORD PTR [edx+0x1c],0x1
    96eb:	74 38                	je     9725 <_ZN3HAL13DomainBinding9getIdlestEmPNS_6DomainE+0x4d>
    96ed:	8d 3c cd 00 00 00 00 	lea    edi,[ecx*8+0x0]
    96f4:	8d 71 04             	lea    esi,[ecx+0x4]
    96f7:	90                   	nop
    96f8:	85 c0                	test   eax,eax
    96fa:	74 29                	je     9725 <_ZN3HAL13DomainBinding9getIdlestEmPNS_6DomainE+0x4d>
    96fc:	8b 10                	mov    edx,DWORD PTR [eax]
    96fe:	8d 4c 38 24          	lea    ecx,[eax+edi*1+0x24]
    9702:	89 c3                	mov    ebx,eax
    9704:	39 c2                	cmp    edx,eax
    9706:	74 14                	je     971c <_ZN3HAL13DomainBinding9getIdlestEmPNS_6DomainE+0x44>
    9708:	8b 29                	mov    ebp,DWORD PTR [ecx]
    970a:	39 6c f2 04          	cmp    DWORD PTR [edx+esi*8+0x4],ebp
    970e:	7d 06                	jge    9716 <_ZN3HAL13DomainBinding9getIdlestEmPNS_6DomainE+0x3e>
    9710:	8d 4c 3a 24          	lea    ecx,[edx+edi*1+0x24]
    9714:	89 d3                	mov    ebx,edx
    9716:	8b 12                	mov    edx,DWORD PTR [edx]
    9718:	39 c2                	cmp    edx,eax
    971a:	75 ec                	jne    9708 <_ZN3HAL13DomainBinding9getIdlestEmPNS_6DomainE+0x30>
    971c:	83 7b 1c 01          	cmp    DWORD PTR [ebx+0x1c],0x1
    9720:	8b 43 0c             	mov    eax,DWORD PTR [ebx+0xc]
    9723:	75 d3                	jne    96f8 <_ZN3HAL13DomainBinding9getIdlestEmPNS_6DomainE+0x20>
    9725:	5b                   	pop    ebx
    9726:	5e                   	pop    esi
    9727:	5f                   	pop    edi
    9728:	5d                   	pop    ebp
    9729:	c3                   	ret    
    972a:	66 90                	xchg   ax,ax

0000972c <_ZN3HAL13DomainBinding10getBusiestEmPNS_6DomainE>:
    972c:	55                   	push   ebp
    972d:	57                   	push   edi
    972e:	56                   	push   esi
    972f:	53                   	push   ebx
    9730:	8b 4c 24 14          	mov    ecx,DWORD PTR [esp+0x14]
    9734:	8b 54 24 18          	mov    edx,DWORD PTR [esp+0x18]
    9738:	8b 42 0c             	mov    eax,DWORD PTR [edx+0xc]
    973b:	83 7a 1c 01          	cmp    DWORD PTR [edx+0x1c],0x1
    973f:	74 34                	je     9775 <_ZN3HAL13DomainBinding10getBusiestEmPNS_6DomainE+0x49>
    9741:	8d 3c cd 00 00 00 00 	lea    edi,[ecx*8+0x0]
    9748:	8d 71 04             	lea    esi,[ecx+0x4]
    974b:	90                   	nop
    974c:	8b 10                	mov    edx,DWORD PTR [eax]
    974e:	8d 4c 38 24          	lea    ecx,[eax+edi*1+0x24]
    9752:	89 c3                	mov    ebx,eax
    9754:	39 d0                	cmp    eax,edx
    9756:	74 14                	je     976c <_ZN3HAL13DomainBinding10getBusiestEmPNS_6DomainE+0x40>
    9758:	8b 29                	mov    ebp,DWORD PTR [ecx]
    975a:	39 6c f2 04          	cmp    DWORD PTR [edx+esi*8+0x4],ebp
    975e:	7e 06                	jle    9766 <_ZN3HAL13DomainBinding10getBusiestEmPNS_6DomainE+0x3a>
    9760:	8d 4c 3a 24          	lea    ecx,[edx+edi*1+0x24]
    9764:	89 d3                	mov    ebx,edx
    9766:	8b 12                	mov    edx,DWORD PTR [edx]
    9768:	39 d0                	cmp    eax,edx
    976a:	75 ec                	jne    9758 <_ZN3HAL13DomainBinding10getBusiestEmPNS_6DomainE+0x2c>
    976c:	83 7b 1c 01          	cmp    DWORD PTR [ebx+0x1c],0x1
    9770:	8b 43 0c             	mov    eax,DWORD PTR [ebx+0xc]
    9773:	75 d7                	jne    974c <_ZN3HAL13DomainBinding10getBusiestEmPNS_6DomainE+0x20>
    9775:	5b                   	pop    ebx
    9776:	5e                   	pop    esi
    9777:	5f                   	pop    edi
    9778:	5d                   	pop    ebp
    9779:	c3                   	ret    
    977a:	66 90                	xchg   ax,ax

0000977c <_ZN3HAL13DomainBinding15findIdlestGroupEmPNS_6DomainE>:
    977c:	55                   	push   ebp
    977d:	57                   	push   edi
    977e:	56                   	push   esi
    977f:	53                   	push   ebx
    9780:	51                   	push   ecx
    9781:	8b 44 24 1c          	mov    eax,DWORD PTR [esp+0x1c]
    9785:	8b 18                	mov    ebx,DWORD PTR [eax]
    9787:	31 f6                	xor    esi,esi
    9789:	39 d8                	cmp    eax,ebx
    978b:	74 21                	je     97ae <_ZN3HAL13DomainBinding15findIdlestGroupEmPNS_6DomainE+0x32>
    978d:	8b 44 24 18          	mov    eax,DWORD PTR [esp+0x18]
    9791:	8d 68 04             	lea    ebp,[eax+0x4]
    9794:	8b 44 eb 04          	mov    eax,DWORD PTR [ebx+ebp*8+0x4]
    9798:	8b 3b                	mov    edi,DWORD PTR [ebx]
    979a:	85 f6                	test   esi,esi
    979c:	74 1a                	je     97b8 <_ZN3HAL13DomainBinding15findIdlestGroupEmPNS_6DomainE+0x3c>
    979e:	39 44 ee 04          	cmp    DWORD PTR [esi+ebp*8+0x4],eax
    97a2:	7c 02                	jl     97a6 <_ZN3HAL13DomainBinding15findIdlestGroupEmPNS_6DomainE+0x2a>
    97a4:	89 de                	mov    esi,ebx
    97a6:	89 fb                	mov    ebx,edi
    97a8:	39 7c 24 1c          	cmp    DWORD PTR [esp+0x1c],edi
    97ac:	75 e6                	jne    9794 <_ZN3HAL13DomainBinding15findIdlestGroupEmPNS_6DomainE+0x18>
    97ae:	89 f0                	mov    eax,esi
    97b0:	5a                   	pop    edx
    97b1:	5b                   	pop    ebx
    97b2:	5e                   	pop    esi
    97b3:	5f                   	pop    edi
    97b4:	5d                   	pop    ebp
    97b5:	c3                   	ret    
    97b6:	66 90                	xchg   ax,ax
    97b8:	8b 54 24 1c          	mov    edx,DWORD PTR [esp+0x1c]
    97bc:	8b 54 ea 04          	mov    edx,DWORD PTR [edx+ebp*8+0x4]
    97c0:	89 14 24             	mov    DWORD PTR [esp],edx
    97c3:	8d 0c 00             	lea    ecx,[eax+eax*1]
    97c6:	01 c1                	add    ecx,eax
    97c8:	01 c9                	add    ecx,ecx
    97ca:	b8 67 66 66 66       	mov    eax,0x66666667
    97cf:	f7 e9                	imul   ecx
    97d1:	89 d0                	mov    eax,edx
    97d3:	d1 f8                	sar    eax,1
    97d5:	c1 f9 1f             	sar    ecx,0x1f
    97d8:	29 c8                	sub    eax,ecx
    97da:	39 04 24             	cmp    DWORD PTR [esp],eax
    97dd:	7f c5                	jg     97a4 <_ZN3HAL13DomainBinding15findIdlestGroupEmPNS_6DomainE+0x28>
    97df:	3b 7c 24 1c          	cmp    edi,DWORD PTR [esp+0x1c]
    97e3:	74 c9                	je     97ae <_ZN3HAL13DomainBinding15findIdlestGroupEmPNS_6DomainE+0x32>
    97e5:	8b 44 ef 04          	mov    eax,DWORD PTR [edi+ebp*8+0x4]
    97e9:	89 fb                	mov    ebx,edi
    97eb:	8b 3f                	mov    edi,DWORD PTR [edi]
    97ed:	eb d4                	jmp    97c3 <_ZN3HAL13DomainBinding15findIdlestGroupEmPNS_6DomainE+0x47>
    97ef:	90                   	nop

000097f0 <_ZN3HAL13DomainBinding16findBusiestGroupEmPNS_6DomainE>:
    97f0:	55                   	push   ebp
    97f1:	57                   	push   edi
    97f2:	56                   	push   esi
    97f3:	53                   	push   ebx
    97f4:	51                   	push   ecx
    97f5:	8b 44 24 1c          	mov    eax,DWORD PTR [esp+0x1c]
    97f9:	8b 08                	mov    ecx,DWORD PTR [eax]
    97fb:	31 f6                	xor    esi,esi
    97fd:	39 c8                	cmp    eax,ecx
    97ff:	74 21                	je     9822 <_ZN3HAL13DomainBinding16findBusiestGroupEmPNS_6DomainE+0x32>
    9801:	8b 44 24 18          	mov    eax,DWORD PTR [esp+0x18]
    9805:	8d 68 04             	lea    ebp,[eax+0x4]
    9808:	8b 5c e9 04          	mov    ebx,DWORD PTR [ecx+ebp*8+0x4]
    980c:	8b 39                	mov    edi,DWORD PTR [ecx]
    980e:	85 f6                	test   esi,esi
    9810:	74 1a                	je     982c <_ZN3HAL13DomainBinding16findBusiestGroupEmPNS_6DomainE+0x3c>
    9812:	39 5c ee 04          	cmp    DWORD PTR [esi+ebp*8+0x4],ebx
    9816:	7f 02                	jg     981a <_ZN3HAL13DomainBinding16findBusiestGroupEmPNS_6DomainE+0x2a>
    9818:	89 ce                	mov    esi,ecx
    981a:	89 f9                	mov    ecx,edi
    981c:	39 7c 24 1c          	cmp    DWORD PTR [esp+0x1c],edi
    9820:	75 e6                	jne    9808 <_ZN3HAL13DomainBinding16findBusiestGroupEmPNS_6DomainE+0x18>
    9822:	89 f0                	mov    eax,esi
    9824:	5a                   	pop    edx
    9825:	5b                   	pop    ebx
    9826:	5e                   	pop    esi
    9827:	5f                   	pop    edi
    9828:	5d                   	pop    ebp
    9829:	c3                   	ret    
    982a:	66 90                	xchg   ax,ax
    982c:	8b 44 24 1c          	mov    eax,DWORD PTR [esp+0x1c]
    9830:	8b 44 e8 04          	mov    eax,DWORD PTR [eax+ebp*8+0x4]
    9834:	89 04 24             	mov    DWORD PTR [esp],eax
    9837:	c1 e3 02             	shl    ebx,0x2
    983a:	b8 67 66 66 66       	mov    eax,0x66666667
    983f:	f7 eb                	imul   ebx
    9841:	89 d0                	mov    eax,edx
    9843:	d1 f8                	sar    eax,1
    9845:	c1 fb 1f             	sar    ebx,0x1f
    9848:	29 d8                	sub    eax,ebx
    984a:	39 04 24             	cmp    DWORD PTR [esp],eax
    984d:	7c c9                	jl     9818 <_ZN3HAL13DomainBinding16findBusiestGroupEmPNS_6DomainE+0x28>
    984f:	3b 7c 24 1c          	cmp    edi,DWORD PTR [esp+0x1c]
    9853:	74 cd                	je     9822 <_ZN3HAL13DomainBinding16findBusiestGroupEmPNS_6DomainE+0x32>
    9855:	8b 5c ef 04          	mov    ebx,DWORD PTR [edi+ebp*8+0x4]
    9859:	89 f9                	mov    ecx,edi
    985b:	8b 3f                	mov    edi,DWORD PTR [edi]
    985d:	eb d8                	jmp    9837 <_ZN3HAL13DomainBinding16findBusiestGroupEmPNS_6DomainE+0x47>
    985f:	8b 14 24             	mov    edx,DWORD PTR [esp]
    9862:	c3                   	ret    
    9863:	90                   	nop

00009864 <ArchMain>:
    9864:	56                   	push   esi
    9865:	53                   	push   ebx
    9866:	50                   	push   eax
    9867:	e8 84 b9 ff ff       	call   51f0 <_Z13EnumerateMADTPFvP14MADTEntryLAPICEPFvP15MADTEntryIOAPICEPFvP12MADTEntryISRE+0x9c>
    986c:	81 c3 8c 1b 00 00    	add    ebx,0x1b8c
    9872:	e8 69 ac ff ff       	call   44e0 <_init@plt>
    9877:	e8 c4 ab ff ff       	call   4440 <_Z8ScanRsdpv@plt>
    987c:	e8 8f ae ff ff       	call   4710 <_Z15SetupRSDTHolderv@plt>
    9881:	8b 8b 2c fd ff ff    	mov    ecx,DWORD PTR [ebx-0x2d4]
    9887:	8b 01                	mov    eax,DWORD PTR [ecx]
    9889:	89 c2                	mov    edx,eax
    988b:	c1 e2 0c             	shl    edx,0xc
    988e:	8b b3 e4 fd ff ff    	mov    esi,DWORD PTR [ebx-0x21c]
    9894:	89 16                	mov    DWORD PTR [esi],edx
    9896:	40                   	inc    eax
    9897:	89 01                	mov    DWORD PTR [ecx],eax
    9899:	51                   	push   ecx
    989a:	6a 00                	push   0x0
    989c:	6a 0b                	push   0xb
    989e:	68 08 00 00 80       	push   0x80000008
    98a3:	6a 00                	push   0x0
    98a5:	6a 00                	push   0x0
    98a7:	68 00 00 e0 fe       	push   0xfee00000
    98ac:	52                   	push   edx
    98ad:	e8 9e ad ff ff       	call   4650 <EnsureMapping@plt>
    98b2:	83 c4 20             	add    esp,0x20
    98b5:	e8 96 ab ff ff       	call   4450 <SetupBSP@plt>
    98ba:	e8 81 ad ff ff       	call   4640 <_Z10InitTTablev@plt>
    98bf:	e8 7c ae ff ff       	call   4740 <_ZN10Executable16RunqueueBalancer4initEv@plt>
    98c4:	e8 d7 ac ff ff       	call   45a0 <SetupAPs@plt>
    98c9:	e8 22 ae ff ff       	call   46f0 <_ZN4APIC18setupScheduleTicksEv@plt>
    98ce:	5b                   	pop    ebx
    98cf:	5b                   	pop    ebx
    98d0:	5e                   	pop    esi
    98d1:	c3                   	ret    
    98d2:	66 90                	xchg   ax,ax
    98d4:	66 90                	xchg   ax,ax
    98d6:	66 90                	xchg   ax,ax
    98d8:	66 90                	xchg   ax,ax
    98da:	66 90                	xchg   ax,ax
    98dc:	66 90                	xchg   ax,ax
    98de:	66 90                	xchg   ax,ax

000098e0 <KiClockRespond>:
    98e0:	0f ae f0             	mfence 
    98e3:	50                   	push   eax
    98e4:	53                   	push   ebx
    98e5:	51                   	push   ecx
    98e6:	52                   	push   edx
    98e7:	56                   	push   esi
    98e8:	57                   	push   edi
    98e9:	55                   	push   ebp
    98ea:	89 e5                	mov    ebp,esp
    98ec:	83 c5 1c             	add    ebp,0x1c
    98ef:	8b 15 00 00 00 00    	mov    edx,DWORD PTR ds:0x0
    98f5:	8b 52 20             	mov    edx,DWORD PTR [edx+0x20]
    98f8:	c1 ea 18             	shr    edx,0x18
    98fb:	39 15 00 00 00 00    	cmp    DWORD PTR ds:0x0,edx
    9901:	75 07                	jne    990a <KiClockRespond+0x2a>
    9903:	f0 ff 05 00 00 00 00 	lock inc DWORD PTR ds:0x0
    990a:	c1 e2 0f             	shl    edx,0xf
    990d:	81 c2 00 00 40 c1    	add    edx,0xc1400000
    9913:	8b 5a 18             	mov    ebx,DWORD PTR [edx+0x18]
    9916:	8b 7b 20             	mov    edi,DWORD PTR [ebx+0x20]
    9919:	8b 4d 00             	mov    ecx,DWORD PTR [ebp+0x0]
    991c:	89 4b 10             	mov    DWORD PTR [ebx+0x10],ecx
    991f:	83 7d 04 08          	cmp    DWORD PTR [ebp+0x4],0x8
    9923:	74 09                	je     992e <KiClockRespond+0x4e>
    9925:	8b 4d 0c             	mov    ecx,DWORD PTR [ebp+0xc]
    9928:	8b 73 1c             	mov    esi,DWORD PTR [ebx+0x1c]
    992b:	89 4e 04             	mov    DWORD PTR [esi+0x4],ecx
    992e:	83 ed 1c             	sub    ebp,0x1c
    9931:	89 6f 04             	mov    DWORD PTR [edi+0x4],ebp
    9934:	52                   	push   edx
    9935:	52                   	push   edx
    9936:	e8 fc ff ff ff       	call   9937 <KiClockRespond+0x57>
    993b:	83 c4 04             	add    esp,0x4
    993e:	5a                   	pop    edx
    993f:	8b 5a 18             	mov    ebx,DWORD PTR [edx+0x18]
    9942:	8b 7b 20             	mov    edi,DWORD PTR [ebx+0x20]
    9945:	8b 67 04             	mov    esp,DWORD PTR [edi+0x4]
    9948:	53                   	push   ebx
    9949:	83 c4 04             	add    esp,0x4
    994c:	83 7b 14 00          	cmp    DWORD PTR [ebx+0x14],0x0
    9950:	74 04                	je     9956 <KiClockRespond+0x76>
    9952:	53                   	push   ebx
    9953:	ff 53 14             	call   DWORD PTR [ebx+0x14]
    9956:	0f ba 73 18 00       	btr    DWORD PTR [ebx+0x18],0x0
    995b:	72 0d                	jb     996a <KiClockRespond+0x8a>
    995d:	e8 34 00 00 00       	call   9996 <EOI>
    9962:	5d                   	pop    ebp
    9963:	5f                   	pop    edi
    9964:	5e                   	pop    esi
    9965:	5a                   	pop    edx
    9966:	59                   	pop    ecx
    9967:	5b                   	pop    ebx
    9968:	58                   	pop    eax
    9969:	cf                   	iret   
    996a:	0f ba 63 18 01       	bt     DWORD PTR [ebx+0x18],0x1
    996f:	72 15                	jb     9986 <KiClockRespond+0xa6>
    9971:	6a 23                	push   0x23
    9973:	ff 73 20             	push   DWORD PTR [ebx+0x20]
    9976:	68 00 02 00 00       	push   0x200
    997b:	6a 00                	push   0x0
    997d:	ff 73 10             	push   DWORD PTR [ebx+0x10]
    9980:	e8 11 00 00 00       	call   9996 <EOI>
    9985:	cf                   	iret   
    9986:	68 02 02 00 00       	push   0x202
    998b:	6a 08                	push   0x8
    998d:	ff 73 10             	push   DWORD PTR [ebx+0x10]
    9990:	e8 01 00 00 00       	call   9996 <EOI>
    9995:	cf                   	iret   

00009996 <EOI>:
    9996:	52                   	push   edx
    9997:	8b 15 00 00 00 00    	mov    edx,DWORD PTR ds:0x0
    999d:	c7 82 b0 00 00 00 00 	mov    DWORD PTR [edx+0xb0],0x0
    99a4:	00 00 00 
    99a7:	5a                   	pop    edx
    99a8:	c3                   	ret    
    99a9:	66 90                	xchg   ax,ax
    99ab:	90                   	nop

000099ac <SetupTSS>:
    99ac:	57                   	push   edi
    99ad:	56                   	push   esi
    99ae:	53                   	push   ebx
    99af:	e8 3c b8 ff ff       	call   51f0 <_Z13EnumerateMADTPFvP14MADTEntryLAPICEPFvP15MADTEntryIOAPICEPFvP12MADTEntryISRE+0x9c>
    99b4:	81 c3 44 1a 00 00    	add    ebx,0x1a44
    99ba:	8b 74 24 10          	mov    esi,DWORD PTR [esp+0x10]
    99be:	8d be 4e 04 00 00    	lea    edi,[esi+0x44e]
    99c4:	83 ec 08             	sub    esp,0x8
    99c7:	8d 86 18 04 00 00    	lea    eax,[esi+0x418]
    99cd:	50                   	push   eax
    99ce:	6a 00                	push   0x0
    99d0:	68 89 00 00 00       	push   0x89
    99d5:	6a 67                	push   0x67
    99d7:	57                   	push   edi
    99d8:	6a 05                	push   0x5
    99da:	e8 ad bf ff ff       	call   598c <FindMaskWidth+0x15>
    99df:	83 c4 1c             	add    esp,0x1c
    99e2:	6a 68                	push   0x68
    99e4:	6a 00                	push   0x0
    99e6:	57                   	push   edi
    99e7:	e8 e4 ac ff ff       	call   46d0 <_Z7memsetfPvmm@plt>
    99ec:	c7 86 9a 04 00 00 08 	mov    DWORD PTR [esi+0x49a],0x8
    99f3:	00 00 00 
    99f6:	c7 86 a2 04 00 00 10 	mov    DWORD PTR [esi+0x4a2],0x10
    99fd:	00 00 00 
    9a00:	c7 86 56 04 00 00 10 	mov    DWORD PTR [esi+0x456],0x10
    9a07:	00 00 00 
    9a0a:	c7 86 52 04 00 00 00 	mov    DWORD PTR [esi+0x452],0x0
    9a11:	00 00 00 
    9a14:	66 c7 86 b4 04 00 00 	mov    WORD PTR [esi+0x4b4],0x68
    9a1b:	68 00 
    9a1d:	e8 4e ac ff ff       	call   4670 <ExecuteLTR@plt>
    9a22:	83 c4 10             	add    esp,0x10
    9a25:	5b                   	pop    ebx
    9a26:	5e                   	pop    esi
    9a27:	5f                   	pop    edi
    9a28:	c3                   	ret    
    9a29:	66 90                	xchg   ax,ax
    9a2b:	90                   	nop
    9a2c:	a1 08 b0 00 00       	mov    eax,ds:0xb008
    9a31:	83 f8 ff             	cmp    eax,0xffffffff
    9a34:	74 1a                	je     9a50 <SetupTSS+0xa4>
    9a36:	55                   	push   ebp
    9a37:	89 e5                	mov    ebp,esp
    9a39:	53                   	push   ebx
    9a3a:	52                   	push   edx
    9a3b:	bb 08 b0 00 00       	mov    ebx,0xb008
    9a40:	ff d0                	call   eax
    9a42:	83 eb 04             	sub    ebx,0x4
    9a45:	8b 03                	mov    eax,DWORD PTR [ebx]
    9a47:	83 f8 ff             	cmp    eax,0xffffffff
    9a4a:	75 f4                	jne    9a40 <SetupTSS+0x94>
    9a4c:	58                   	pop    eax
    9a4d:	5b                   	pop    ebx
    9a4e:	5d                   	pop    ebp
    9a4f:	c3                   	ret    
    9a50:	c3                   	ret    

Disassembly of section .fini:

00009a51 <_fini>:
    9a51:	55                   	push   ebp
    9a52:	89 e5                	mov    ebp,esp
    9a54:	e8 5b b6 ff ff       	call   50b4 <hello+0x84>
    9a59:	5d                   	pop    ebp
    9a5a:	c3                   	ret    
